libKWaylandServer.so.5:_ZN14KWaylandServer12TabletCursor11qt_metacallEN11QMetaObject4CallEiPPv
libKWaylandServer.so.5:_ZN14KWaylandServer12TabletCursor11qt_metacastEPKc
libKWaylandServer.so.5:_ZN14KWaylandServer12TabletCursor7changedEv
libKWaylandServer.so.5:_ZN14KWaylandServer12TabletCursorC1Ev
libKWaylandServer.so.5:_ZN14KWaylandServer12TabletCursorC2Ev
libKWaylandServer.so.5:_ZN14KWaylandServer12TabletCursorD0Ev
libKWaylandServer.so.5:_ZN14KWaylandServer12TabletCursorD1Ev
libKWaylandServer.so.5:_ZN14KWaylandServer12TabletCursorD2Ev
libKWaylandServer.so.5:_ZN14KWaylandServer13BlurInterface11qt_metacallEN11QMetaObject4CallEiPPv
libKWaylandServer.so.5:_ZN14KWaylandServer13BlurInterface11qt_metacastEPKc
libKWaylandServer.so.5:_ZN14KWaylandServer13BlurInterface6regionEv
libKWaylandServer.so.5:_ZN14KWaylandServer13BlurInterfaceC1EP11wl_resource
libKWaylandServer.so.5:_ZN14KWaylandServer13BlurInterfaceC2EP11wl_resource
libKWaylandServer.so.5:_ZN14KWaylandServer13BlurInterfaceD0Ev
libKWaylandServer.so.5:_ZN14KWaylandServer13BlurInterfaceD1Ev
libKWaylandServer.so.5:_ZN14KWaylandServer13BlurInterfaceD2Ev
libKWaylandServer.so.5:_ZN14KWaylandServer13IdleInterface11qt_metacallEN11QMetaObject4CallEiPPv
libKWaylandServer.so.5:_ZN14KWaylandServer13IdleInterface11qt_metacastEPKc
libKWaylandServer.so.5:_ZN14KWaylandServer13IdleInterface16inhibitedChangedEv
libKWaylandServer.so.5:_ZN14KWaylandServer13IdleInterface20simulateUserActivityEv
libKWaylandServer.so.5:_ZN14KWaylandServer13IdleInterface7inhibitEv
libKWaylandServer.so.5:_ZN14KWaylandServer13IdleInterface9uninhibitEv
libKWaylandServer.so.5:_ZN14KWaylandServer13IdleInterfaceC1EPNS_7DisplayEP7QObject
libKWaylandServer.so.5:_ZN14KWaylandServer13IdleInterfaceC2EPNS_7DisplayEP7QObject
libKWaylandServer.so.5:_ZN14KWaylandServer13IdleInterfaceD0Ev
libKWaylandServer.so.5:_ZN14KWaylandServer13IdleInterfaceD1Ev
libKWaylandServer.so.5:_ZN14KWaylandServer13IdleInterfaceD2Ev
libKWaylandServer.so.5:_ZN14KWaylandServer13SeatInterface10keyPressedEj
libKWaylandServer.so.5:_ZN14KWaylandServer13SeatInterface10touchFrameEv
libKWaylandServer.so.5:_ZN14KWaylandServer13SeatInterface10touchMovedEijRK7QPointF
libKWaylandServer.so.5:_ZN14KWaylandServer13SeatInterface11dragStartedEv
libKWaylandServer.so.5:_ZN14KWaylandServer13SeatInterface11keyReleasedEj
libKWaylandServer.so.5:_ZN14KWaylandServer13SeatInterface11nameChangedERK7QString
libKWaylandServer.so.5:_ZN14KWaylandServer13SeatInterface11pointerAxisEN2Qt11OrientationEj
libKWaylandServer.so.5:_ZN14KWaylandServer13SeatInterface11qt_metacallEN11QMetaObject4CallEiPPv
libKWaylandServer.so.5:_ZN14KWaylandServer13SeatInterface11qt_metacastEPKc
libKWaylandServer.so.5:_ZN14KWaylandServer13SeatInterface11setHasTouchEb
libKWaylandServer.so.5:_ZN14KWaylandServer13SeatInterface12setSelectionEPNS_18AbstractDataSourceE
libKWaylandServer.so.5:_ZN14KWaylandServer13SeatInterface12setTimestampEj
libKWaylandServer.so.5:_ZN14KWaylandServer13SeatInterface12touchCreatedEPNS_14TouchInterfaceE
libKWaylandServer.so.5:_ZN14KWaylandServer13SeatInterface13pointerAxisV5EN2Qt11OrientationEdiNS_17PointerAxisSourceE
libKWaylandServer.so.5:_ZN14KWaylandServer13SeatInterface13setDragTargetEPNS_16SurfaceInterfaceERK10QMatrix4x4
libKWaylandServer.so.5:_ZN14KWaylandServer13SeatInterface13setDragTargetEPNS_16SurfaceInterfaceERK7QPointFRK10QMatrix4x4
libKWaylandServer.so.5:_ZN14KWaylandServer13SeatInterface13setHasPointerEb
libKWaylandServer.so.5:_ZN14KWaylandServer13SeatInterface13setKeymapDataERK10QByteArray
libKWaylandServer.so.5:_ZN14KWaylandServer13SeatInterface13setPointerPosERK7QPointF
libKWaylandServer.so.5:_ZN14KWaylandServer13SeatInterface14pointerCreatedEPNS_16PointerInterfaceE
libKWaylandServer.so.5:_ZN14KWaylandServer13SeatInterface14setHasKeyboardEb
libKWaylandServer.so.5:_ZN14KWaylandServer13SeatInterface15hasTouchChangedEb
libKWaylandServer.so.5:_ZN14KWaylandServer13SeatInterface15keyboardCreatedEPNS_17KeyboardInterfaceE
libKWaylandServer.so.5:_ZN14KWaylandServer13SeatInterface16selectionChangedEPNS_18AbstractDataSourceE
libKWaylandServer.so.5:_ZN14KWaylandServer13SeatInterface16setKeyRepeatInfoEii
libKWaylandServer.so.5:_ZN14KWaylandServer13SeatInterface16timestampChangedEj
libKWaylandServer.so.5:_ZN14KWaylandServer13SeatInterface17hasPointerChangedEb
libKWaylandServer.so.5:_ZN14KWaylandServer13SeatInterface17pointerPosChangedERK7QPointF
libKWaylandServer.so.5:_ZN14KWaylandServer13SeatInterface18dragSurfaceChangedEv
libKWaylandServer.so.5:_ZN14KWaylandServer13SeatInterface18hasKeyboardChangedEb
libKWaylandServer.so.5:_ZN14KWaylandServer13SeatInterface19cancelTouchSequenceEv
libKWaylandServer.so.5:_ZN14KWaylandServer13SeatInterface19setPrimarySelectionEPNS_18AbstractDataSourceE
libKWaylandServer.so.5:_ZN14KWaylandServer13SeatInterface20pointerButtonPressedEN2Qt11MouseButtonE
libKWaylandServer.so.5:_ZN14KWaylandServer13SeatInterface20pointerButtonPressedEj
libKWaylandServer.so.5:_ZN14KWaylandServer13SeatInterface21focusedPointerChangedEPNS_16PointerInterfaceE
libKWaylandServer.so.5:_ZN14KWaylandServer13SeatInterface21pointerButtonReleasedEN2Qt11MouseButtonE
libKWaylandServer.so.5:_ZN14KWaylandServer13SeatInterface21pointerButtonReleasedEj
libKWaylandServer.so.5:_ZN14KWaylandServer13SeatInterface21relativePointerMotionERK6QSizeFS3_y
libKWaylandServer.so.5:_ZN14KWaylandServer13SeatInterface22endPointerPinchGestureEv
libKWaylandServer.so.5:_ZN14KWaylandServer13SeatInterface22endPointerSwipeGestureEv
libKWaylandServer.so.5:_ZN14KWaylandServer13SeatInterface22setFocusedTouchSurfaceEPNS_16SurfaceInterfaceERK7QPointF
libKWaylandServer.so.5:_ZN14KWaylandServer13SeatInterface23focusedTextInputChangedEv
libKWaylandServer.so.5:_ZN14KWaylandServer13SeatInterface23primarySelectionChangedEPNS_18AbstractDataSourceE
libKWaylandServer.so.5:_ZN14KWaylandServer13SeatInterface23updateKeyboardModifiersEjjjj
libKWaylandServer.so.5:_ZN14KWaylandServer13SeatInterface24setFocusedPointerSurfaceEPNS_16SurfaceInterfaceERK10QMatrix4x4
libKWaylandServer.so.5:_ZN14KWaylandServer13SeatInterface24setFocusedPointerSurfaceEPNS_16SurfaceInterfaceERK7QPointF
libKWaylandServer.so.5:_ZN14KWaylandServer13SeatInterface24startPointerPinchGestureEj
libKWaylandServer.so.5:_ZN14KWaylandServer13SeatInterface24startPointerSwipeGestureEj
libKWaylandServer.so.5:_ZN14KWaylandServer13SeatInterface25cancelPointerPinchGestureEv
libKWaylandServer.so.5:_ZN14KWaylandServer13SeatInterface25cancelPointerSwipeGestureEv
libKWaylandServer.so.5:_ZN14KWaylandServer13SeatInterface25setFocusedKeyboardSurfaceEPNS_16SurfaceInterfaceE
libKWaylandServer.so.5:_ZN14KWaylandServer13SeatInterface25updatePointerPinchGestureERK6QSizeFdd
libKWaylandServer.so.5:_ZN14KWaylandServer13SeatInterface25updatePointerSwipeGestureERK6QSizeF
libKWaylandServer.so.5:_ZN14KWaylandServer13SeatInterface26setFocusedTextInputSurfaceEPNS_16SurfaceInterfaceE
libKWaylandServer.so.5:_ZN14KWaylandServer13SeatInterface30setFocusedTouchSurfacePositionERK7QPointF
libKWaylandServer.so.5:_ZN14KWaylandServer13SeatInterface32setFocusedPointerSurfacePositionERK7QPointF
libKWaylandServer.so.5:_ZN14KWaylandServer13SeatInterface38setFocusedPointerSurfaceTransformationERK10QMatrix4x4
libKWaylandServer.so.5:_ZN14KWaylandServer13SeatInterface3getEP11wl_resource
libKWaylandServer.so.5:_ZN14KWaylandServer13SeatInterface7Private10getPointerEP9wl_clientP11wl_resourcej
libKWaylandServer.so.5:_ZN14KWaylandServer13SeatInterface7Private11getKeyboardEP9wl_clientP11wl_resourcej
libKWaylandServer.so.5:_ZN14KWaylandServer13SeatInterface7Private15releaseCallbackEP9wl_clientP11wl_resource
libKWaylandServer.so.5:_ZN14KWaylandServer13SeatInterface7Private15updateSelectionEPNS_19DataDeviceInterfaceE
libKWaylandServer.so.5:_ZN14KWaylandServer13SeatInterface7Private16getTouchCallbackEP9wl_clientP11wl_resourcej
libKWaylandServer.so.5:_ZN14KWaylandServer13SeatInterface7Private16sendCapabilitiesEP11wl_resource
libKWaylandServer.so.5:_ZN14KWaylandServer13SeatInterface7Private17registerTextInputEPNS_18TextInputInterfaceE
libKWaylandServer.so.5:_ZN14KWaylandServer13SeatInterface7Private18getPointerCallbackEP9wl_clientP11wl_resourcej
libKWaylandServer.so.5:_ZN14KWaylandServer13SeatInterface7Private18registerDataDeviceEPNS_19DataDeviceInterfaceE
libKWaylandServer.so.5:_ZN14KWaylandServer13SeatInterface7Private19getKeyboardCallbackEP9wl_clientP11wl_resourcej
libKWaylandServer.so.5:_ZN14KWaylandServer13SeatInterface7Private22updatePrimarySelectionEPNS_33PrimarySelectionDeviceV1InterfaceE
libKWaylandServer.so.5:_ZN14KWaylandServer13SeatInterface7Private24updatePointerButtonStateEjNS1_7Pointer5StateE
libKWaylandServer.so.5:_ZN14KWaylandServer13SeatInterface7Private25registerDataControlDeviceEPNS_28DataControlDeviceV1InterfaceE
libKWaylandServer.so.5:_ZN14KWaylandServer13SeatInterface7Private25updatePointerButtonSerialEjj
libKWaylandServer.so.5:_ZN14KWaylandServer13SeatInterface7Private30registerPrimarySelectionDeviceEPNS_33PrimarySelectionDeviceV1InterfaceE
libKWaylandServer.so.5:_ZN14KWaylandServer13SeatInterface7Private4bindEP9wl_clientjj
libKWaylandServer.so.5:_ZN14KWaylandServer13SeatInterface7Private4castEP11wl_resource
libKWaylandServer.so.5:_ZN14KWaylandServer13SeatInterface7Private6unbindEP11wl_resource
libKWaylandServer.so.5:_ZN14KWaylandServer13SeatInterface7Private7endDragEj
libKWaylandServer.so.5:_ZN14KWaylandServer13SeatInterface7Private8getTouchEP9wl_clientP11wl_resourcej
libKWaylandServer.so.5:_ZN14KWaylandServer13SeatInterface7Private8sendNameEP11wl_resource
libKWaylandServer.so.5:_ZN14KWaylandServer13SeatInterface7Private9updateKeyEjNS1_8Keyboard5StateE
libKWaylandServer.so.5:_ZN14KWaylandServer13SeatInterface7PrivateC1EPS0_PNS_7DisplayE
libKWaylandServer.so.5:_ZN14KWaylandServer13SeatInterface7PrivateC2EPS0_PNS_7DisplayE
libKWaylandServer.so.5:_ZN14KWaylandServer13SeatInterface7setNameERK7QString
libKWaylandServer.so.5:_ZN14KWaylandServer13SeatInterface7touchUpEi
libKWaylandServer.so.5:_ZN14KWaylandServer13SeatInterface9dragEndedEv
libKWaylandServer.so.5:_ZN14KWaylandServer13SeatInterface9setKeymapEij
libKWaylandServer.so.5:_ZN14KWaylandServer13SeatInterface9touchDownERK7QPointF
libKWaylandServer.so.5:_ZN14KWaylandServer13SeatInterface9touchMoveEiRK7QPointF
libKWaylandServer.so.5:_ZN14KWaylandServer13SeatInterfaceC1EPNS_7DisplayEP7QObject
libKWaylandServer.so.5:_ZN14KWaylandServer13SeatInterfaceC2EPNS_7DisplayEP7QObject
libKWaylandServer.so.5:_ZN14KWaylandServer13SeatInterfaceD0Ev
libKWaylandServer.so.5:_ZN14KWaylandServer13SeatInterfaceD1Ev
libKWaylandServer.so.5:_ZN14KWaylandServer13SeatInterfaceD2Ev
libKWaylandServer.so.5:_ZN14KWaylandServer13XdgPositioner3getEP11wl_resource
libKWaylandServer.so.5:_ZN14KWaylandServer13XdgPositionerC1ERK18QSharedDataPointerINS_17XdgPositionerDataEE
libKWaylandServer.so.5:_ZN14KWaylandServer13XdgPositionerC1ERKS0_
libKWaylandServer.so.5:_ZN14KWaylandServer13XdgPositionerC1Ev
libKWaylandServer.so.5:_ZN14KWaylandServer13XdgPositionerC2ERK18QSharedDataPointerINS_17XdgPositionerDataEE
libKWaylandServer.so.5:_ZN14KWaylandServer13XdgPositionerC2ERKS0_
libKWaylandServer.so.5:_ZN14KWaylandServer13XdgPositionerC2Ev
libKWaylandServer.so.5:_ZN14KWaylandServer13XdgPositionerD1Ev
libKWaylandServer.so.5:_ZN14KWaylandServer13XdgPositionerD2Ev
libKWaylandServer.so.5:_ZN14KWaylandServer13XdgPositioneraSERKS0_
libKWaylandServer.so.5:_ZN14KWaylandServer14SlideInterface11qt_metacallEN11QMetaObject4CallEiPPv
libKWaylandServer.so.5:_ZN14KWaylandServer14SlideInterface11qt_metacastEPKc
libKWaylandServer.so.5:_ZN14KWaylandServer14SlideInterface7Private14commitCallbackEP9wl_clientP11wl_resource
libKWaylandServer.so.5:_ZN14KWaylandServer14SlideInterface7Private17setOffsetCallbackEP9wl_clientP11wl_resourcei
libKWaylandServer.so.5:_ZN14KWaylandServer14SlideInterface7Private19setLocationCallbackEP9wl_clientP11wl_resourcej
libKWaylandServer.so.5:_ZN14KWaylandServer14SlideInterface7PrivateC1EPS0_PNS_21SlideManagerInterfaceEP11wl_resource
libKWaylandServer.so.5:_ZN14KWaylandServer14SlideInterface7PrivateC2EPS0_PNS_21SlideManagerInterfaceEP11wl_resource
libKWaylandServer.so.5:_ZN14KWaylandServer14SlideInterface7PrivateD0Ev
libKWaylandServer.so.5:_ZN14KWaylandServer14SlideInterface7PrivateD1Ev
libKWaylandServer.so.5:_ZN14KWaylandServer14SlideInterface7PrivateD2Ev
libKWaylandServer.so.5:_ZN14KWaylandServer14SlideInterfaceC1EPNS_21SlideManagerInterfaceEP11wl_resource
libKWaylandServer.so.5:_ZN14KWaylandServer14SlideInterfaceC2EPNS_21SlideManagerInterfaceEP11wl_resource
libKWaylandServer.so.5:_ZN14KWaylandServer14SlideInterfaceD0Ev
libKWaylandServer.so.5:_ZN14KWaylandServer14SlideInterfaceD1Ev
libKWaylandServer.so.5:_ZN14KWaylandServer14SlideInterfaceD2Ev
libKWaylandServer.so.5:_ZN14KWaylandServer14TouchInterface11qt_metacallEN11QMetaObject4CallEiPPv
libKWaylandServer.so.5:_ZN14KWaylandServer14TouchInterface11qt_metacastEPKc
libKWaylandServer.so.5:_ZN14KWaylandServer14TouchInterface2upEij
libKWaylandServer.so.5:_ZN14KWaylandServer14TouchInterface4downEijRK7QPointF
libKWaylandServer.so.5:_ZN14KWaylandServer14TouchInterface4moveEiRK7QPointF
libKWaylandServer.so.5:_ZN14KWaylandServer14TouchInterface5frameEv
libKWaylandServer.so.5:_ZN14KWaylandServer14TouchInterface6cancelEv
libKWaylandServer.so.5:_ZN14KWaylandServer14TouchInterface7PrivateC1EPNS_13SeatInterfaceEP11wl_resourcePS0_
libKWaylandServer.so.5:_ZN14KWaylandServer14TouchInterface7PrivateC2EPNS_13SeatInterfaceEP11wl_resourcePS0_
libKWaylandServer.so.5:_ZN14KWaylandServer14TouchInterfaceC1EPNS_13SeatInterfaceEP11wl_resource
libKWaylandServer.so.5:_ZN14KWaylandServer14TouchInterfaceC2EPNS_13SeatInterfaceEP11wl_resource
libKWaylandServer.so.5:_ZN14KWaylandServer14TouchInterfaceD0Ev
libKWaylandServer.so.5:_ZN14KWaylandServer14TouchInterfaceD1Ev
libKWaylandServer.so.5:_ZN14KWaylandServer14TouchInterfaceD2Ev
libKWaylandServer.so.5:_ZN14KWaylandServer15BufferInterface11qt_metacallEN11QMetaObject4CallEiPPv
libKWaylandServer.so.5:_ZN14KWaylandServer15BufferInterface11qt_metacastEPKc
libKWaylandServer.so.5:_ZN14KWaylandServer15BufferInterface11sizeChangedEv
libKWaylandServer.so.5:_ZN14KWaylandServer15BufferInterface17linuxDmabufBufferEv
libKWaylandServer.so.5:_ZN14KWaylandServer15BufferInterface18aboutToBeDestroyedEPS0_
libKWaylandServer.so.5:_ZN14KWaylandServer15BufferInterface3getEPNS_7DisplayEP11wl_resource
libKWaylandServer.so.5:_ZN14KWaylandServer15BufferInterface3refEv
libKWaylandServer.so.5:_ZN14KWaylandServer15BufferInterface4dataEv
libKWaylandServer.so.5:_ZN14KWaylandServer15BufferInterface5unrefEv
libKWaylandServer.so.5:_ZN14KWaylandServer15BufferInterface7Private11createImageEv
libKWaylandServer.so.5:_ZN14KWaylandServer15BufferInterface7Private23destroyListenerCallbackEP11wl_listenerPv
libKWaylandServer.so.5:_ZN14KWaylandServer15BufferInterface7Private25imageBufferCleanupHandlerEPv
libKWaylandServer.so.5:_ZN14KWaylandServer15BufferInterface7Private3getEP11wl_resource
libKWaylandServer.so.5:_ZN14KWaylandServer15BufferInterface7Private4castEP11wl_resource
libKWaylandServer.so.5:_ZN14KWaylandServer15BufferInterface7PrivateC1EPS0_PNS_7DisplayEP11wl_resource
libKWaylandServer.so.5:_ZN14KWaylandServer15BufferInterface7PrivateC2EPS0_PNS_7DisplayEP11wl_resource
libKWaylandServer.so.5:_ZN14KWaylandServer15BufferInterface7PrivateD1Ev
libKWaylandServer.so.5:_ZN14KWaylandServer15BufferInterface7PrivateD2Ev
libKWaylandServer.so.5:_ZN14KWaylandServer15BufferInterface7setSizeERK5QSize
libKWaylandServer.so.5:_ZN14KWaylandServer15BufferInterface9shmBufferEv
libKWaylandServer.so.5:_ZN14KWaylandServer15BufferInterfaceC1EPNS_7DisplayEP11wl_resource
libKWaylandServer.so.5:_ZN14KWaylandServer15BufferInterfaceC2EPNS_7DisplayEP11wl_resource
libKWaylandServer.so.5:_ZN14KWaylandServer15BufferInterfaceD0Ev
libKWaylandServer.so.5:_ZN14KWaylandServer15BufferInterfaceD1Ev
libKWaylandServer.so.5:_ZN14KWaylandServer15BufferInterfaceD2Ev
libKWaylandServer.so.5:_ZN14KWaylandServer15FakeInputDevice11qt_metacallEN11QMetaObject4CallEiPPv
libKWaylandServer.so.5:_ZN14KWaylandServer15FakeInputDevice11qt_metacastEPKc
libKWaylandServer.so.5:_ZN14KWaylandServer15FakeInputDevice16touchUpRequestedEj
libKWaylandServer.so.5:_ZN14KWaylandServer15FakeInputDevice17setAuthenticationEb
libKWaylandServer.so.5:_ZN14KWaylandServer15FakeInputDevice18touchDownRequestedEjRK7QPointF
libKWaylandServer.so.5:_ZN14KWaylandServer15FakeInputDevice19touchFrameRequestedEv
libKWaylandServer.so.5:_ZN14KWaylandServer15FakeInputDevice20pointerAxisRequestedEN2Qt11OrientationEd
libKWaylandServer.so.5:_ZN14KWaylandServer15FakeInputDevice20touchCancelRequestedEv
libKWaylandServer.so.5:_ZN14KWaylandServer15FakeInputDevice20touchMotionRequestedEjRK7QPointF
libKWaylandServer.so.5:_ZN14KWaylandServer15FakeInputDevice22pointerMotionRequestedERK6QSizeF
libKWaylandServer.so.5:_ZN14KWaylandServer15FakeInputDevice23authenticationRequestedERK7QStringS3_
libKWaylandServer.so.5:_ZN14KWaylandServer15FakeInputDevice25keyboardKeyPressRequestedEj
libKWaylandServer.so.5:_ZN14KWaylandServer15FakeInputDevice27keyboardKeyReleaseRequestedEj
libKWaylandServer.so.5:_ZN14KWaylandServer15FakeInputDevice27pointerButtonPressRequestedEj
libKWaylandServer.so.5:_ZN14KWaylandServer15FakeInputDevice29pointerButtonReleaseRequestedEj
libKWaylandServer.so.5:_ZN14KWaylandServer15FakeInputDevice30pointerMotionAbsoluteRequestedERK7QPointF
libKWaylandServer.so.5:_ZN14KWaylandServer15FakeInputDevice7PrivateC1EP11wl_resourcePNS_18FakeInputInterfaceE
libKWaylandServer.so.5:_ZN14KWaylandServer15FakeInputDevice7PrivateC2EP11wl_resourcePNS_18FakeInputInterfaceE
libKWaylandServer.so.5:_ZN14KWaylandServer15FakeInputDevice8resourceEv
libKWaylandServer.so.5:_ZN14KWaylandServer15FakeInputDeviceC1EP11wl_resourcePNS_18FakeInputInterfaceE
libKWaylandServer.so.5:_ZN14KWaylandServer15FakeInputDeviceC2EP11wl_resourcePNS_18FakeInputInterfaceE
libKWaylandServer.so.5:_ZN14KWaylandServer15FakeInputDeviceD0Ev
libKWaylandServer.so.5:_ZN14KWaylandServer15FakeInputDeviceD1Ev
libKWaylandServer.so.5:_ZN14KWaylandServer15FakeInputDeviceD2Ev
libKWaylandServer.so.5:_ZN14KWaylandServer15FilteredDisplay11qt_metacallEN11QMetaObject4CallEiPPv
libKWaylandServer.so.5:_ZN14KWaylandServer15FilteredDisplay11qt_metacastEPKc
libKWaylandServer.so.5:_ZN14KWaylandServer15FilteredDisplay7PrivateC1EPS0_
libKWaylandServer.so.5:_ZN14KWaylandServer15FilteredDisplay7PrivateC2EPS0_
libKWaylandServer.so.5:_ZN14KWaylandServer15FilteredDisplayC1EP7QObject
libKWaylandServer.so.5:_ZN14KWaylandServer15FilteredDisplayC2EP7QObject
libKWaylandServer.so.5:_ZN14KWaylandServer15FilteredDisplayD0Ev
libKWaylandServer.so.5:_ZN14KWaylandServer15FilteredDisplayD1Ev
libKWaylandServer.so.5:_ZN14KWaylandServer15FilteredDisplayD2Ev
libKWaylandServer.so.5:_ZN14KWaylandServer15OutputChangeSet11qt_metacallEN11QMetaObject4CallEiPPv
libKWaylandServer.so.5:_ZN14KWaylandServer15OutputChangeSet11qt_metacastEPKc
libKWaylandServer.so.5:_ZN14KWaylandServer15OutputChangeSet7PrivateC1EPNS_21OutputDeviceInterfaceEPS0_
libKWaylandServer.so.5:_ZN14KWaylandServer15OutputChangeSet7PrivateC2EPNS_21OutputDeviceInterfaceEPS0_
libKWaylandServer.so.5:_ZN14KWaylandServer15OutputChangeSet7PrivateD1Ev
libKWaylandServer.so.5:_ZN14KWaylandServer15OutputChangeSet7PrivateD2Ev
libKWaylandServer.so.5:_ZN14KWaylandServer15OutputChangeSetC1EPNS_21OutputDeviceInterfaceEP7QObject
libKWaylandServer.so.5:_ZN14KWaylandServer15OutputChangeSetC2EPNS_21OutputDeviceInterfaceEP7QObject
libKWaylandServer.so.5:_ZN14KWaylandServer15OutputChangeSetD0Ev
libKWaylandServer.so.5:_ZN14KWaylandServer15OutputChangeSetD1Ev
libKWaylandServer.so.5:_ZN14KWaylandServer15OutputChangeSetD2Ev
libKWaylandServer.so.5:_ZN14KWaylandServer15OutputInterface11qt_metacallEN11QMetaObject4CallEiPPv
libKWaylandServer.so.5:_ZN14KWaylandServer15OutputInterface11qt_metacastEPKc
libKWaylandServer.so.5:_ZN14KWaylandServer15OutputInterface11setDpmsModeENS0_8DpmsModeE
libKWaylandServer.so.5:_ZN14KWaylandServer15OutputInterface11setSubPixelENS0_8SubPixelE
libKWaylandServer.so.5:_ZN14KWaylandServer15OutputInterface12modelChangedERK7QString
libKWaylandServer.so.5:_ZN14KWaylandServer15OutputInterface12modesChangedEv
libKWaylandServer.so.5:_ZN14KWaylandServer15OutputInterface12scaleChangedEi
libKWaylandServer.so.5:_ZN14KWaylandServer15OutputInterface12setTransformENS0_9TransformE
libKWaylandServer.so.5:_ZN14KWaylandServer15OutputInterface14setCurrentModeERK5QSizei
libKWaylandServer.so.5:_ZN14KWaylandServer15OutputInterface15dpmsModeChangedEv
libKWaylandServer.so.5:_ZN14KWaylandServer15OutputInterface15setManufacturerERK7QString
libKWaylandServer.so.5:_ZN14KWaylandServer15OutputInterface15setPhysicalSizeERK5QSize
libKWaylandServer.so.5:_ZN14KWaylandServer15OutputInterface15subPixelChangedENS0_8SubPixelE
libKWaylandServer.so.5:_ZN14KWaylandServer15OutputInterface16pixelSizeChangedERK5QSize
libKWaylandServer.so.5:_ZN14KWaylandServer15OutputInterface16setDpmsSupportedEb
libKWaylandServer.so.5:_ZN14KWaylandServer15OutputInterface16transformChangedENS0_9TransformE
libKWaylandServer.so.5:_ZN14KWaylandServer15OutputInterface17dpmsModeRequestedENS0_8DpmsModeE
libKWaylandServer.so.5:_ZN14KWaylandServer15OutputInterface17setGlobalPositionERK6QPoint
libKWaylandServer.so.5:_ZN14KWaylandServer15OutputInterface18currentModeChangedEv
libKWaylandServer.so.5:_ZN14KWaylandServer15OutputInterface18refreshRateChangedEi
libKWaylandServer.so.5:_ZN14KWaylandServer15OutputInterface19manufacturerChangedERK7QString
libKWaylandServer.so.5:_ZN14KWaylandServer15OutputInterface19physicalSizeChangedERK5QSize
libKWaylandServer.so.5:_ZN14KWaylandServer15OutputInterface20dpmsSupportedChangedEv
libKWaylandServer.so.5:_ZN14KWaylandServer15OutputInterface21globalPositionChangedERK6QPoint
libKWaylandServer.so.5:_ZN14KWaylandServer15OutputInterface3getEP11wl_resource
libKWaylandServer.so.5:_ZN14KWaylandServer15OutputInterface7Private11updateScaleEv
libKWaylandServer.so.5:_ZN14KWaylandServer15OutputInterface7Private12sendGeometryEP11wl_resource
libKWaylandServer.so.5:_ZN14KWaylandServer15OutputInterface7Private14updateGeometryEv
libKWaylandServer.so.5:_ZN14KWaylandServer15OutputInterface7Private15releaseCallbackEP9wl_clientP11wl_resource
libKWaylandServer.so.5:_ZN14KWaylandServer15OutputInterface7Private3getEP11wl_resource
libKWaylandServer.so.5:_ZN14KWaylandServer15OutputInterface7Private4bindEP9wl_clientjj
libKWaylandServer.so.5:_ZN14KWaylandServer15OutputInterface7Private4castEP11wl_resource
libKWaylandServer.so.5:_ZN14KWaylandServer15OutputInterface7Private6unbindEP11wl_resource
libKWaylandServer.so.5:_ZN14KWaylandServer15OutputInterface7Private8sendDoneERKNS1_12ResourceDataE
libKWaylandServer.so.5:_ZN14KWaylandServer15OutputInterface7Private8sendModeEP11wl_resourceRKNS0_4ModeE
libKWaylandServer.so.5:_ZN14KWaylandServer15OutputInterface7Private9sendScaleERKNS1_12ResourceDataE
libKWaylandServer.so.5:_ZN14KWaylandServer15OutputInterface7PrivateC1EPS0_PNS_7DisplayE
libKWaylandServer.so.5:_ZN14KWaylandServer15OutputInterface7PrivateC2EPS0_PNS_7DisplayE
libKWaylandServer.so.5:_ZN14KWaylandServer15OutputInterface7PrivateD0Ev
libKWaylandServer.so.5:_ZN14KWaylandServer15OutputInterface7PrivateD1Ev
libKWaylandServer.so.5:_ZN14KWaylandServer15OutputInterface7PrivateD2Ev
libKWaylandServer.so.5:_ZN14KWaylandServer15OutputInterface7addModeERK5QSize6QFlagsINS0_8ModeFlagEEi
libKWaylandServer.so.5:_ZN14KWaylandServer15OutputInterface8setModelERK7QString
libKWaylandServer.so.5:_ZN14KWaylandServer15OutputInterface8setScaleEi
libKWaylandServer.so.5:_ZN14KWaylandServer15OutputInterfaceC1EPNS_7DisplayEP7QObject
libKWaylandServer.so.5:_ZN14KWaylandServer15OutputInterfaceC2EPNS_7DisplayEP7QObject
libKWaylandServer.so.5:_ZN14KWaylandServer15OutputInterfaceD0Ev
libKWaylandServer.so.5:_ZN14KWaylandServer15OutputInterfaceD1Ev
libKWaylandServer.so.5:_ZN14KWaylandServer15OutputInterfaceD2Ev
libKWaylandServer.so.5:_ZN14KWaylandServer15RegionInterface11qt_metacallEN11QMetaObject4CallEiPPv
libKWaylandServer.so.5:_ZN14KWaylandServer15RegionInterface11qt_metacastEPKc
libKWaylandServer.so.5:_ZN14KWaylandServer15RegionInterface13regionChangedERK7QRegion
libKWaylandServer.so.5:_ZN14KWaylandServer15RegionInterface3getEP11wl_resource
libKWaylandServer.so.5:_ZN14KWaylandServer15RegionInterfaceC1EPNS_19CompositorInterfaceEP11wl_resource
libKWaylandServer.so.5:_ZN14KWaylandServer15RegionInterfaceC2EPNS_19CompositorInterfaceEP11wl_resource
libKWaylandServer.so.5:_ZN14KWaylandServer15RegionInterfaceD0Ev
libKWaylandServer.so.5:_ZN14KWaylandServer15RegionInterfaceD1Ev
libKWaylandServer.so.5:_ZN14KWaylandServer15RegionInterfaceD2Ev
libKWaylandServer.so.5:_ZN14KWaylandServer15ShadowInterface11qt_metacallEN11QMetaObject4CallEiPPv
libKWaylandServer.so.5:_ZN14KWaylandServer15ShadowInterface11qt_metacastEPKc
libKWaylandServer.so.5:_ZN14KWaylandServer15ShadowInterfaceC1EPNS_22ShadowManagerInterfaceEP11wl_resource
libKWaylandServer.so.5:_ZN14KWaylandServer15ShadowInterfaceC2EPNS_22ShadowManagerInterfaceEP11wl_resource
libKWaylandServer.so.5:_ZN14KWaylandServer15ShadowInterfaceD0Ev
libKWaylandServer.so.5:_ZN14KWaylandServer15ShadowInterfaceD1Ev
libKWaylandServer.so.5:_ZN14KWaylandServer15ShadowInterfaceD2Ev
libKWaylandServer.so.5:_ZN14KWaylandServer15TabletInterface11qt_metacallEN11QMetaObject4CallEiPPv
libKWaylandServer.so.5:_ZN14KWaylandServer15TabletInterface11qt_metacastEPKc
libKWaylandServer.so.5:_ZN14KWaylandServer15TabletInterface11sendRemovedEv
libKWaylandServer.so.5:_ZN14KWaylandServer15TabletInterfaceC1EjjRK7QStringRK11QStringListP7QObject
libKWaylandServer.so.5:_ZN14KWaylandServer15TabletInterfaceC2EjjRK7QStringRK11QStringListP7QObject
libKWaylandServer.so.5:_ZN14KWaylandServer15TabletInterfaceD0Ev
libKWaylandServer.so.5:_ZN14KWaylandServer15TabletInterfaceD1Ev
libKWaylandServer.so.5:_ZN14KWaylandServer15TabletInterfaceD2Ev
libKWaylandServer.so.5:_ZN14KWaylandServer16AppMenuInterface11qt_metacallEN11QMetaObject4CallEiPPv
libKWaylandServer.so.5:_ZN14KWaylandServer16AppMenuInterface11qt_metacastEPKc
libKWaylandServer.so.5:_ZN14KWaylandServer16AppMenuInterface14addressChangedENS0_16InterfaceAddressE
libKWaylandServer.so.5:_ZN14KWaylandServer16AppMenuInterfaceC1EPNS_16SurfaceInterfaceEP11wl_resource
libKWaylandServer.so.5:_ZN14KWaylandServer16AppMenuInterfaceC2EPNS_16SurfaceInterfaceEP11wl_resource
libKWaylandServer.so.5:_ZN14KWaylandServer16AppMenuInterfaceD0Ev
libKWaylandServer.so.5:_ZN14KWaylandServer16AppMenuInterfaceD1Ev
libKWaylandServer.so.5:_ZN14KWaylandServer16AppMenuInterfaceD2Ev
libKWaylandServer.so.5:_ZN14KWaylandServer16ClientConnection11getResourceEj
libKWaylandServer.so.5:_ZN14KWaylandServer16ClientConnection11qt_metacallEN11QMetaObject4CallEiPPv
libKWaylandServer.so.5:_ZN14KWaylandServer16ClientConnection11qt_metacastEPKc
libKWaylandServer.so.5:_ZN14KWaylandServer16ClientConnection12disconnectedEPS0_
libKWaylandServer.so.5:_ZN14KWaylandServer16ClientConnection14createResourceEPK12wl_interfacejj
libKWaylandServer.so.5:_ZN14KWaylandServer16ClientConnection5flushEv
libKWaylandServer.so.5:_ZN14KWaylandServer16ClientConnection6clientEv
libKWaylandServer.so.5:_ZN14KWaylandServer16ClientConnection7Private23destroyListenerCallbackEP11wl_listenerPv
libKWaylandServer.so.5:_ZN14KWaylandServer16ClientConnection7PrivateC1EP9wl_clientPNS_7DisplayEPS0_
libKWaylandServer.so.5:_ZN14KWaylandServer16ClientConnection7PrivateC2EP9wl_clientPNS_7DisplayEPS0_
libKWaylandServer.so.5:_ZN14KWaylandServer16ClientConnection7PrivateD1Ev
libKWaylandServer.so.5:_ZN14KWaylandServer16ClientConnection7PrivateD2Ev
libKWaylandServer.so.5:_ZN14KWaylandServer16ClientConnection7destroyEv
libKWaylandServer.so.5:_ZN14KWaylandServer16ClientConnection7displayEv
libKWaylandServer.so.5:_ZN14KWaylandServer16ClientConnectionC1EP9wl_clientPNS_7DisplayE
libKWaylandServer.so.5:_ZN14KWaylandServer16ClientConnectionC2EP9wl_clientPNS_7DisplayE
libKWaylandServer.so.5:_ZN14KWaylandServer16ClientConnectionD0Ev
libKWaylandServer.so.5:_ZN14KWaylandServer16ClientConnectionD1Ev
libKWaylandServer.so.5:_ZN14KWaylandServer16ClientConnectionD2Ev
libKWaylandServer.so.5:_ZN14KWaylandServer16ClientConnectioncvP9wl_clientEv
libKWaylandServer.so.5:_ZN14KWaylandServer16PointerInterface11qt_metacallEN11QMetaObject4CallEiPPv
libKWaylandServer.so.5:_ZN14KWaylandServer16PointerInterface11qt_metacastEPKc
libKWaylandServer.so.5:_ZN14KWaylandServer16PointerInterface13buttonPressedEjj
libKWaylandServer.so.5:_ZN14KWaylandServer16PointerInterface13cursorChangedEv
libKWaylandServer.so.5:_ZN14KWaylandServer16PointerInterface14buttonReleasedEjj
libKWaylandServer.so.5:_ZN14KWaylandServer16PointerInterface14relativeMotionERK6QSizeFS3_y
libKWaylandServer.so.5:_ZN14KWaylandServer16PointerInterface17setFocusedSurfaceEPNS_16SurfaceInterfaceEj
libKWaylandServer.so.5:_ZN14KWaylandServer16PointerInterface3getEP11wl_resource
libKWaylandServer.so.5:_ZN14KWaylandServer16PointerInterface4axisEN2Qt11OrientationEdiNS_17PointerAxisSourceE
libKWaylandServer.so.5:_ZN14KWaylandServer16PointerInterface4axisEN2Qt11OrientationEj
libKWaylandServer.so.5:_ZN14KWaylandServer16PointerInterface7Private15endPinchGestureEj
libKWaylandServer.so.5:_ZN14KWaylandServer16PointerInterface7Private15endSwipeGestureEj
libKWaylandServer.so.5:_ZN14KWaylandServer16PointerInterface7Private17setCursorCallbackEP9wl_clientP11wl_resourcejS5_ii
libKWaylandServer.so.5:_ZN14KWaylandServer16PointerInterface7Private17startPinchGestureEjj
libKWaylandServer.so.5:_ZN14KWaylandServer16PointerInterface7Private17startSwipeGestureEjj
libKWaylandServer.so.5:_ZN14KWaylandServer16PointerInterface7Private18cancelPinchGestureEj
libKWaylandServer.so.5:_ZN14KWaylandServer16PointerInterface7Private18cancelSwipeGestureEj
libKWaylandServer.so.5:_ZN14KWaylandServer16PointerInterface7Private18updatePinchGestureERK6QSizeFdd
libKWaylandServer.so.5:_ZN14KWaylandServer16PointerInterface7Private18updateSwipeGestureERK6QSizeF
libKWaylandServer.so.5:_ZN14KWaylandServer16PointerInterface7Private20registerPinchGestureEPNS_28PointerPinchGestureInterfaceE
libKWaylandServer.so.5:_ZN14KWaylandServer16PointerInterface7Private20registerSwipeGestureEPNS_28PointerSwipeGestureInterfaceE
libKWaylandServer.so.5:_ZN14KWaylandServer16PointerInterface7Private23registerRelativePointerEPNS_24RelativePointerInterfaceE
libKWaylandServer.so.5:_ZN14KWaylandServer16PointerInterface7Private9sendEnterEPNS_16SurfaceInterfaceERK7QPointFj
libKWaylandServer.so.5:_ZN14KWaylandServer16PointerInterface7Private9sendFrameEv
libKWaylandServer.so.5:_ZN14KWaylandServer16PointerInterface7Private9sendLeaveEPNS_16SurfaceInterfaceEj
libKWaylandServer.so.5:_ZN14KWaylandServer16PointerInterface7Private9setCursorEjPNS_16SurfaceInterfaceERK6QPoint
libKWaylandServer.so.5:_ZN14KWaylandServer16PointerInterface7PrivateC1EPNS_13SeatInterfaceEP11wl_resourcePS0_
libKWaylandServer.so.5:_ZN14KWaylandServer16PointerInterface7PrivateC2EPNS_13SeatInterfaceEP11wl_resourcePS0_
libKWaylandServer.so.5:_ZN14KWaylandServer16PointerInterfaceC1EPNS_13SeatInterfaceEP11wl_resource
libKWaylandServer.so.5:_ZN14KWaylandServer16PointerInterfaceC2EPNS_13SeatInterfaceEP11wl_resource
libKWaylandServer.so.5:_ZN14KWaylandServer16PointerInterfaceD0Ev
libKWaylandServer.so.5:_ZN14KWaylandServer16PointerInterfaceD1Ev
libKWaylandServer.so.5:_ZN14KWaylandServer16PointerInterfaceD2Ev
libKWaylandServer.so.5:_ZN14KWaylandServer16SurfaceInterface10setOutputsERK7QVectorIPNS_15OutputInterfaceEE
libKWaylandServer.so.5:_ZN14KWaylandServer16SurfaceInterface11blurChangedEv
libKWaylandServer.so.5:_ZN14KWaylandServer16SurfaceInterface11qt_metacallEN11QMetaObject4CallEiPPv
libKWaylandServer.so.5:_ZN14KWaylandServer16SurfaceInterface11qt_metacastEPKc
libKWaylandServer.so.5:_ZN14KWaylandServer16SurfaceInterface11sizeChangedEv
libKWaylandServer.so.5:_ZN14KWaylandServer16SurfaceInterface12inputChangedERK7QRegion
libKWaylandServer.so.5:_ZN14KWaylandServer16SurfaceInterface12setDataProxyEPS0_
libKWaylandServer.so.5:_ZN14KWaylandServer16SurfaceInterface13frameRenderedEj
libKWaylandServer.so.5:_ZN14KWaylandServer16SurfaceInterface13opaqueChangedERK7QRegion
libKWaylandServer.so.5:_ZN14KWaylandServer16SurfaceInterface13shadowChangedEv
libKWaylandServer.so.5:_ZN14KWaylandServer16SurfaceInterface14inputSurfaceAtERK7QPointF
libKWaylandServer.so.5:_ZN14KWaylandServer16SurfaceInterface15contrastChangedEv
libKWaylandServer.so.5:_ZN14KWaylandServer16SurfaceInterface17bufferSizeChangedEv
libKWaylandServer.so.5:_ZN14KWaylandServer16SurfaceInterface18aboutToBeDestroyedEv
libKWaylandServer.so.5:_ZN14KWaylandServer16SurfaceInterface18bufferScaleChangedEi
libKWaylandServer.so.5:_ZN14KWaylandServer16SurfaceInterface18resetTrackedDamageEv
libKWaylandServer.so.5:_ZN14KWaylandServer16SurfaceInterface19handleBufferRemovedEPNS_15BufferInterfaceE
libKWaylandServer.so.5:_ZN14KWaylandServer16SurfaceInterface19inhibitsIdleChangedEv
libKWaylandServer.so.5:_ZN14KWaylandServer16SurfaceInterface20childSubSurfaceAddedEPNS_19SubSurfaceInterfaceE
libKWaylandServer.so.5:_ZN14KWaylandServer16SurfaceInterface21subSurfaceTreeChangedEv
libKWaylandServer.so.5:_ZN14KWaylandServer16SurfaceInterface22bufferTransformChangedENS_15OutputInterface9TransformE
libKWaylandServer.so.5:_ZN14KWaylandServer16SurfaceInterface22childSubSurfaceRemovedEPNS_19SubSurfaceInterfaceE
libKWaylandServer.so.5:_ZN14KWaylandServer16SurfaceInterface22slideOnShowHideChangedEv
libKWaylandServer.so.5:_ZN14KWaylandServer16SurfaceInterface25pointerConstraintsChangedEv
libKWaylandServer.so.5:_ZN14KWaylandServer16SurfaceInterface28surfaceToBufferMatrixChangedEv
libKWaylandServer.so.5:_ZN14KWaylandServer16SurfaceInterface3getEP11wl_resource
libKWaylandServer.so.5:_ZN14KWaylandServer16SurfaceInterface3getEjPKNS_16ClientConnectionE
libKWaylandServer.so.5:_ZN14KWaylandServer16SurfaceInterface6bufferEv
libKWaylandServer.so.5:_ZN14KWaylandServer16SurfaceInterface6mappedEv
libKWaylandServer.so.5:_ZN14KWaylandServer16SurfaceInterface7damagedERK7QRegion
libKWaylandServer.so.5:_ZN14KWaylandServer16SurfaceInterface8surfacesEv
libKWaylandServer.so.5:_ZN14KWaylandServer16SurfaceInterface8unmappedEv
libKWaylandServer.so.5:_ZN14KWaylandServer16SurfaceInterface9committedEv
libKWaylandServer.so.5:_ZN14KWaylandServer16SurfaceInterface9surfaceAtERK7QPointF
libKWaylandServer.so.5:_ZN14KWaylandServer16SurfaceInterfaceC1EPNS_19CompositorInterfaceEP11wl_resource
libKWaylandServer.so.5:_ZN14KWaylandServer16SurfaceInterfaceC2EPNS_19CompositorInterfaceEP11wl_resource
libKWaylandServer.so.5:_ZN14KWaylandServer16SurfaceInterfaceD0Ev
libKWaylandServer.so.5:_ZN14KWaylandServer16SurfaceInterfaceD1Ev
libKWaylandServer.so.5:_ZN14KWaylandServer16SurfaceInterfaceD2Ev
libKWaylandServer.so.5:_ZN14KWaylandServer17ContrastInterface11qt_metacallEN11QMetaObject4CallEiPPv
libKWaylandServer.so.5:_ZN14KWaylandServer17ContrastInterface11qt_metacastEPKc
libKWaylandServer.so.5:_ZN14KWaylandServer17ContrastInterfaceC1EP11wl_resource
libKWaylandServer.so.5:_ZN14KWaylandServer17ContrastInterfaceC2EP11wl_resource
libKWaylandServer.so.5:_ZN14KWaylandServer17ContrastInterfaceD0Ev
libKWaylandServer.so.5:_ZN14KWaylandServer17ContrastInterfaceD1Ev
libKWaylandServer.so.5:_ZN14KWaylandServer17ContrastInterfaceD2Ev
libKWaylandServer.so.5:_ZN14KWaylandServer17KeyStateInterface11qt_metacallEN11QMetaObject4CallEiPPv
libKWaylandServer.so.5:_ZN14KWaylandServer17KeyStateInterface11qt_metacastEPKc
libKWaylandServer.so.5:_ZN14KWaylandServer17KeyStateInterface8setStateENS0_3KeyENS0_5StateE
libKWaylandServer.so.5:_ZN14KWaylandServer17KeyStateInterfaceC1EPNS_7DisplayEP7QObject
libKWaylandServer.so.5:_ZN14KWaylandServer17KeyStateInterfaceC2EPNS_7DisplayEP7QObject
libKWaylandServer.so.5:_ZN14KWaylandServer17KeyStateInterfaceD0Ev
libKWaylandServer.so.5:_ZN14KWaylandServer17KeyStateInterfaceD1Ev
libKWaylandServer.so.5:_ZN14KWaylandServer17KeyStateInterfaceD2Ev
libKWaylandServer.so.5:_ZN14KWaylandServer17KeyboardInterface10keyPressedEjj
libKWaylandServer.so.5:_ZN14KWaylandServer17KeyboardInterface10repeatInfoEii
libKWaylandServer.so.5:_ZN14KWaylandServer17KeyboardInterface11keyReleasedEjj
libKWaylandServer.so.5:_ZN14KWaylandServer17KeyboardInterface11qt_metacallEN11QMetaObject4CallEiPPv
libKWaylandServer.so.5:_ZN14KWaylandServer17KeyboardInterface11qt_metacastEPKc
libKWaylandServer.so.5:_ZN14KWaylandServer17KeyboardInterface15updateModifiersEjjjjj
libKWaylandServer.so.5:_ZN14KWaylandServer17KeyboardInterface17setFocusedSurfaceEPNS_16SurfaceInterfaceEj
libKWaylandServer.so.5:_ZN14KWaylandServer17KeyboardInterface7Private10sendKeymapEij
libKWaylandServer.so.5:_ZN14KWaylandServer17KeyboardInterface7Private13sendModifiersEjjjjj
libKWaylandServer.so.5:_ZN14KWaylandServer17KeyboardInterface7Private13sendModifiersEv
libKWaylandServer.so.5:_ZN14KWaylandServer17KeyboardInterface7Private17focusChildSurfaceERK8QPointerINS_16SurfaceInterfaceEEj
libKWaylandServer.so.5:_ZN14KWaylandServer17KeyboardInterface7Private9sendEnterEPNS_16SurfaceInterfaceEj
libKWaylandServer.so.5:_ZN14KWaylandServer17KeyboardInterface7Private9sendLeaveEPNS_16SurfaceInterfaceEj
libKWaylandServer.so.5:_ZN14KWaylandServer17KeyboardInterface7PrivateC1EPNS_13SeatInterfaceEP11wl_resourcePS0_
libKWaylandServer.so.5:_ZN14KWaylandServer17KeyboardInterface7PrivateC2EPNS_13SeatInterfaceEP11wl_resourcePS0_
libKWaylandServer.so.5:_ZN14KWaylandServer17KeyboardInterface9setKeymapERK10QByteArray
libKWaylandServer.so.5:_ZN14KWaylandServer17KeyboardInterface9setKeymapEij
libKWaylandServer.so.5:_ZN14KWaylandServer17KeyboardInterfaceC1EPNS_13SeatInterfaceEP11wl_resource
libKWaylandServer.so.5:_ZN14KWaylandServer17KeyboardInterfaceC2EPNS_13SeatInterfaceEP11wl_resource
libKWaylandServer.so.5:_ZN14KWaylandServer17KeyboardInterfaceD0Ev
libKWaylandServer.so.5:_ZN14KWaylandServer17KeyboardInterfaceD1Ev
libKWaylandServer.so.5:_ZN14KWaylandServer17KeyboardInterfaceD2Ev
libKWaylandServer.so.5:_ZN14KWaylandServer17LinuxDmabufBufferC1Ev
libKWaylandServer.so.5:_ZN14KWaylandServer17LinuxDmabufBufferC2Ev
libKWaylandServer.so.5:_ZN14KWaylandServer17XdgPopupInterface11qt_metacallEN11QMetaObject4CallEiPPv
libKWaylandServer.so.5:_ZN14KWaylandServer17XdgPopupInterface11qt_metacastEPKc
libKWaylandServer.so.5:_ZN14KWaylandServer17XdgPopupInterface13grabRequestedEPNS_13SeatInterfaceEj
libKWaylandServer.so.5:_ZN14KWaylandServer17XdgPopupInterface13sendConfigureERK5QRect
libKWaylandServer.so.5:_ZN14KWaylandServer17XdgPopupInterface13sendPopupDoneEv
libKWaylandServer.so.5:_ZN14KWaylandServer17XdgPopupInterface19initializeRequestedEv
libKWaylandServer.so.5:_ZN14KWaylandServer17XdgPopupInterface3getEP11wl_resource
libKWaylandServer.so.5:_ZN14KWaylandServer17XdgPopupInterfaceC1EPNS_19XdgSurfaceInterfaceEPNS_16SurfaceInterfaceERKNS_13XdgPositionerEP11wl_resource
libKWaylandServer.so.5:_ZN14KWaylandServer17XdgPopupInterfaceC2EPNS_19XdgSurfaceInterfaceEPNS_16SurfaceInterfaceERKNS_13XdgPositionerEP11wl_resource
libKWaylandServer.so.5:_ZN14KWaylandServer17XdgPopupInterfaceD0Ev
libKWaylandServer.so.5:_ZN14KWaylandServer17XdgPopupInterfaceD1Ev
libKWaylandServer.so.5:_ZN14KWaylandServer17XdgPopupInterfaceD2Ev
libKWaylandServer.so.5:_ZN14KWaylandServer17XdgShellInterface11pingDelayedEj
libKWaylandServer.so.5:_ZN14KWaylandServer17XdgShellInterface11pingTimeoutEj
libKWaylandServer.so.5:_ZN14KWaylandServer17XdgShellInterface11qt_metacallEN11QMetaObject4CallEiPPv
libKWaylandServer.so.5:_ZN14KWaylandServer17XdgShellInterface11qt_metacastEPKc
libKWaylandServer.so.5:_ZN14KWaylandServer17XdgShellInterface12pongReceivedEj
libKWaylandServer.so.5:_ZN14KWaylandServer17XdgShellInterface12popupCreatedEPNS_17XdgPopupInterfaceE
libKWaylandServer.so.5:_ZN14KWaylandServer17XdgShellInterface15toplevelCreatedEPNS_20XdgToplevelInterfaceE
libKWaylandServer.so.5:_ZN14KWaylandServer17XdgShellInterface4pingEPNS_19XdgSurfaceInterfaceE
libKWaylandServer.so.5:_ZN14KWaylandServer17XdgShellInterfaceC1EPNS_7DisplayEP7QObject
libKWaylandServer.so.5:_ZN14KWaylandServer17XdgShellInterfaceC2EPNS_7DisplayEP7QObject
libKWaylandServer.so.5:_ZN14KWaylandServer17XdgShellInterfaceD0Ev
libKWaylandServer.so.5:_ZN14KWaylandServer17XdgShellInterfaceD1Ev
libKWaylandServer.so.5:_ZN14KWaylandServer17XdgShellInterfaceD2Ev
libKWaylandServer.so.5:_ZN14KWaylandServer18AbstractDataSource11qt_metacallEN11QMetaObject4CallEiPPv
libKWaylandServer.so.5:_ZN14KWaylandServer18AbstractDataSource11qt_metacastEPKc
libKWaylandServer.so.5:_ZN14KWaylandServer18AbstractDataSource15mimeTypeOfferedERK7QString
libKWaylandServer.so.5:_ZN14KWaylandServer18AbstractDataSource34supportedDragAndDropActionsChangedEv
libKWaylandServer.so.5:_ZN14KWaylandServer18AbstractDataSourceC1EPNS_8Resource7PrivateEP7QObject
libKWaylandServer.so.5:_ZN14KWaylandServer18AbstractDataSourceC2EPNS_8Resource7PrivateEP7QObject
libKWaylandServer.so.5:_ZN14KWaylandServer18DataOfferInterface11qt_metacallEN11QMetaObject4CallEiPPv
libKWaylandServer.so.5:_ZN14KWaylandServer18DataOfferInterface11qt_metacastEPKc
libKWaylandServer.so.5:_ZN14KWaylandServer18DataOfferInterface13sendAllOffersEv
libKWaylandServer.so.5:_ZN14KWaylandServer18DataOfferInterface25dragAndDropActionsChangedEv
libKWaylandServer.so.5:_ZN14KWaylandServer18DataOfferInterface9dndActionENS_26DataDeviceManagerInterface9DnDActionE
libKWaylandServer.so.5:_ZN14KWaylandServer18DataOfferInterfaceC1EPNS_18AbstractDataSourceEPNS_19DataDeviceInterfaceEP11wl_resource
libKWaylandServer.so.5:_ZN14KWaylandServer18DataOfferInterfaceC2EPNS_18AbstractDataSourceEPNS_19DataDeviceInterfaceEP11wl_resource
libKWaylandServer.so.5:_ZN14KWaylandServer18DataOfferInterfaceD0Ev
libKWaylandServer.so.5:_ZN14KWaylandServer18DataOfferInterfaceD1Ev
libKWaylandServer.so.5:_ZN14KWaylandServer18DataOfferInterfaceD2Ev
libKWaylandServer.so.5:_ZN14KWaylandServer18FakeInputInterface11qt_metacallEN11QMetaObject4CallEiPPv
libKWaylandServer.so.5:_ZN14KWaylandServer18FakeInputInterface11qt_metacastEPKc
libKWaylandServer.so.5:_ZN14KWaylandServer18FakeInputInterface13deviceCreatedEPNS_15FakeInputDeviceE
libKWaylandServer.so.5:_ZN14KWaylandServer18FakeInputInterface7Private12axisCallbackEP9wl_clientP11wl_resourceji
libKWaylandServer.so.5:_ZN14KWaylandServer18FakeInputInterface7Private14buttonCallbackEP9wl_clientP11wl_resourcejj
libKWaylandServer.so.5:_ZN14KWaylandServer18FakeInputInterface7Private15touchUpCallbackEP9wl_clientP11wl_resourcej
libKWaylandServer.so.5:_ZN14KWaylandServer18FakeInputInterface7Private17touchDownCallbackEP9wl_clientP11wl_resourcejii
libKWaylandServer.so.5:_ZN14KWaylandServer18FakeInputInterface7Private18touchFrameCallbackEP9wl_clientP11wl_resource
libKWaylandServer.so.5:_ZN14KWaylandServer18FakeInputInterface7Private19keyboardKeyCallbackEP9wl_clientP11wl_resourcejj
libKWaylandServer.so.5:_ZN14KWaylandServer18FakeInputInterface7Private19touchCancelCallbackEP9wl_clientP11wl_resource
libKWaylandServer.so.5:_ZN14KWaylandServer18FakeInputInterface7Private19touchMotionCallbackEP9wl_clientP11wl_resourcejii
libKWaylandServer.so.5:_ZN14KWaylandServer18FakeInputInterface7Private20authenticateCallbackEP9wl_clientP11wl_resourcePKcS7_
libKWaylandServer.so.5:_ZN14KWaylandServer18FakeInputInterface7Private21pointerMotionCallbackEP9wl_clientP11wl_resourceii
libKWaylandServer.so.5:_ZN14KWaylandServer18FakeInputInterface7Private29pointerMotionAbsoluteCallbackEP9wl_clientP11wl_resourceii
libKWaylandServer.so.5:_ZN14KWaylandServer18FakeInputInterface7Private4bindEP9wl_clientjj
libKWaylandServer.so.5:_ZN14KWaylandServer18FakeInputInterface7Private6deviceEP11wl_resource
libKWaylandServer.so.5:_ZN14KWaylandServer18FakeInputInterface7Private6unbindEP11wl_resource
libKWaylandServer.so.5:_ZN14KWaylandServer18FakeInputInterface7PrivateC1EPS0_PNS_7DisplayE
libKWaylandServer.so.5:_ZN14KWaylandServer18FakeInputInterface7PrivateC2EPS0_PNS_7DisplayE
libKWaylandServer.so.5:_ZN14KWaylandServer18FakeInputInterfaceC1EPNS_7DisplayEP7QObject
libKWaylandServer.so.5:_ZN14KWaylandServer18FakeInputInterfaceC2EPNS_7DisplayEP7QObject
libKWaylandServer.so.5:_ZN14KWaylandServer18FakeInputInterfaceD0Ev
libKWaylandServer.so.5:_ZN14KWaylandServer18FakeInputInterfaceD1Ev
libKWaylandServer.so.5:_ZN14KWaylandServer18FakeInputInterfaceD2Ev
libKWaylandServer.so.5:_ZN14KWaylandServer18TextInputInterface11qt_metacallEN11QMetaObject4CallEiPPv
libKWaylandServer.so.5:_ZN14KWaylandServer18TextInputInterface11qt_metacastEPKc
libKWaylandServer.so.5:_ZN14KWaylandServer18TextInputInterface11setLanguageERK10QByteArray
libKWaylandServer.so.5:_ZN14KWaylandServer18TextInputInterface12requestResetEv
libKWaylandServer.so.5:_ZN14KWaylandServer18TextInputInterface13keysymPressedEj6QFlagsIN2Qt16KeyboardModifierEE
libKWaylandServer.so.5:_ZN14KWaylandServer18TextInputInterface14enabledChangedEv
libKWaylandServer.so.5:_ZN14KWaylandServer18TextInputInterface14keysymReleasedEj6QFlagsIN2Qt16KeyboardModifierEE
libKWaylandServer.so.5:_ZN14KWaylandServer18TextInputInterface14stateCommittedEj
libKWaylandServer.so.5:_ZN14KWaylandServer18TextInputInterface16setPreEditCursorEi
libKWaylandServer.so.5:_ZN14KWaylandServer18TextInputInterface16setTextDirectionEN2Qt15LayoutDirectionE
libKWaylandServer.so.5:_ZN14KWaylandServer18TextInputInterface17setCursorPositionEii
libKWaylandServer.so.5:_ZN14KWaylandServer18TextInputInterface18contentTypeChangedEv
libKWaylandServer.so.5:_ZN14KWaylandServer18TextInputInterface18setInputPanelStateEbRK5QRect
libKWaylandServer.so.5:_ZN14KWaylandServer18TextInputInterface21deleteSurroundingTextEjj
libKWaylandServer.so.5:_ZN14KWaylandServer18TextInputInterface21requestHideInputPanelEv
libKWaylandServer.so.5:_ZN14KWaylandServer18TextInputInterface21requestShowInputPanelEv
libKWaylandServer.so.5:_ZN14KWaylandServer18TextInputInterface22cursorRectangleChangedERK5QRect
libKWaylandServer.so.5:_ZN14KWaylandServer18TextInputInterface22surroundingTextChangedEv
libKWaylandServer.so.5:_ZN14KWaylandServer18TextInputInterface24preferredLanguageChangedERK10QByteArray
libKWaylandServer.so.5:_ZN14KWaylandServer18TextInputInterface6commitERK10QByteArray
libKWaylandServer.so.5:_ZN14KWaylandServer18TextInputInterface7Private22hideInputPanelCallbackEP9wl_clientP11wl_resource
libKWaylandServer.so.5:_ZN14KWaylandServer18TextInputInterface7Private22setContentTypeCallbackEP9wl_clientP11wl_resourcejj
libKWaylandServer.so.5:_ZN14KWaylandServer18TextInputInterface7Private22showInputPanelCallbackEP9wl_clientP11wl_resource
libKWaylandServer.so.5:_ZN14KWaylandServer18TextInputInterface7Private26setCursorRectangleCallbackEP9wl_clientP11wl_resourceiiii
libKWaylandServer.so.5:_ZN14KWaylandServer18TextInputInterface7Private26setSurroundingTextCallbackEP9wl_clientP11wl_resourcePKcii
libKWaylandServer.so.5:_ZN14KWaylandServer18TextInputInterface7Private28setPreferredLanguageCallbackEP9wl_clientP11wl_resourcePKc
libKWaylandServer.so.5:_ZN14KWaylandServer18TextInputInterface7PrivateC1EPS0_PNS_6GlobalEP11wl_resourcePK12wl_interfacePKv
libKWaylandServer.so.5:_ZN14KWaylandServer18TextInputInterface7PrivateC2EPS0_PNS_6GlobalEP11wl_resourcePK12wl_interfacePKv
libKWaylandServer.so.5:_ZN14KWaylandServer18TextInputInterface7PrivateD0Ev
libKWaylandServer.so.5:_ZN14KWaylandServer18TextInputInterface7PrivateD1Ev
libKWaylandServer.so.5:_ZN14KWaylandServer18TextInputInterface7PrivateD2Ev
libKWaylandServer.so.5:_ZN14KWaylandServer18TextInputInterface7preEditERK10QByteArrayS3_
libKWaylandServer.so.5:_ZN14KWaylandServer18TextInputInterfaceC1EPNS0_7PrivateEP7QObject
libKWaylandServer.so.5:_ZN14KWaylandServer18TextInputInterfaceC2EPNS0_7PrivateEP7QObject
libKWaylandServer.so.5:_ZN14KWaylandServer18TextInputInterfaceD0Ev
libKWaylandServer.so.5:_ZN14KWaylandServer18TextInputInterfaceD1Ev
libKWaylandServer.so.5:_ZN14KWaylandServer18TextInputInterfaceD2Ev
libKWaylandServer.so.5:_ZN14KWaylandServer19CompositorInterface11qt_metacallEN11QMetaObject4CallEiPPv
libKWaylandServer.so.5:_ZN14KWaylandServer19CompositorInterface11qt_metacastEPKc
libKWaylandServer.so.5:_ZN14KWaylandServer19CompositorInterface13regionCreatedEPNS_15RegionInterfaceE
libKWaylandServer.so.5:_ZN14KWaylandServer19CompositorInterface14surfaceCreatedEPNS_16SurfaceInterfaceE
libKWaylandServer.so.5:_ZN14KWaylandServer19CompositorInterfaceC1EPNS_7DisplayEP7QObject
libKWaylandServer.so.5:_ZN14KWaylandServer19CompositorInterfaceC2EPNS_7DisplayEP7QObject
libKWaylandServer.so.5:_ZN14KWaylandServer19CompositorInterfaceD0Ev
libKWaylandServer.so.5:_ZN14KWaylandServer19CompositorInterfaceD1Ev
libKWaylandServer.so.5:_ZN14KWaylandServer19CompositorInterfaceD2Ev
libKWaylandServer.so.5:_ZN14KWaylandServer19DataDeviceInterface11dragStartedEv
libKWaylandServer.so.5:_ZN14KWaylandServer19DataDeviceInterface11qt_metacallEN11QMetaObject4CallEiPPv
libKWaylandServer.so.5:_ZN14KWaylandServer19DataDeviceInterface11qt_metacastEPKc
libKWaylandServer.so.5:_ZN14KWaylandServer19DataDeviceInterface11updateProxyEPNS_16SurfaceInterfaceE
libKWaylandServer.so.5:_ZN14KWaylandServer19DataDeviceInterface13sendSelectionEPNS_18AbstractDataSourceE
libKWaylandServer.so.5:_ZN14KWaylandServer19DataDeviceInterface16selectionChangedEPNS_19DataSourceInterfaceE
libKWaylandServer.so.5:_ZN14KWaylandServer19DataDeviceInterface16selectionClearedEv
libKWaylandServer.so.5:_ZN14KWaylandServer19DataDeviceInterface16updateDragTargetEPNS_16SurfaceInterfaceEj
libKWaylandServer.so.5:_ZN14KWaylandServer19DataDeviceInterface18sendClearSelectionEv
libKWaylandServer.so.5:_ZN14KWaylandServer19DataDeviceInterface4dropEv
libKWaylandServer.so.5:_ZN14KWaylandServer19DataDeviceInterface7Private12setSelectionEPNS_19DataSourceInterfaceE
libKWaylandServer.so.5:_ZN14KWaylandServer19DataDeviceInterface7Private15createDataOfferEPNS_18AbstractDataSourceE
libKWaylandServer.so.5:_ZN14KWaylandServer19DataDeviceInterface7Private17startDragCallbackEP9wl_clientP11wl_resourceS5_S5_S5_j
libKWaylandServer.so.5:_ZN14KWaylandServer19DataDeviceInterface7Private20setSelectionCallbackEP9wl_clientP11wl_resourceS5_j
libKWaylandServer.so.5:_ZN14KWaylandServer19DataDeviceInterface7Private9startDragEPNS_19DataSourceInterfaceEPNS_16SurfaceInterfaceES5_j
libKWaylandServer.so.5:_ZN14KWaylandServer19DataDeviceInterface7PrivateC1EPNS_13SeatInterfaceEPS0_PNS_26DataDeviceManagerInterfaceEP11wl_resource
libKWaylandServer.so.5:_ZN14KWaylandServer19DataDeviceInterface7PrivateC2EPNS_13SeatInterfaceEPS0_PNS_26DataDeviceManagerInterfaceEP11wl_resource
libKWaylandServer.so.5:_ZN14KWaylandServer19DataDeviceInterface7PrivateD0Ev
libKWaylandServer.so.5:_ZN14KWaylandServer19DataDeviceInterface7PrivateD1Ev
libKWaylandServer.so.5:_ZN14KWaylandServer19DataDeviceInterface7PrivateD2Ev
libKWaylandServer.so.5:_ZN14KWaylandServer19DataDeviceInterfaceC1EPNS_13SeatInterfaceEPNS_26DataDeviceManagerInterfaceEP11wl_resource
libKWaylandServer.so.5:_ZN14KWaylandServer19DataDeviceInterfaceC2EPNS_13SeatInterfaceEPNS_26DataDeviceManagerInterfaceEP11wl_resource
libKWaylandServer.so.5:_ZN14KWaylandServer19DataDeviceInterfaceD0Ev
libKWaylandServer.so.5:_ZN14KWaylandServer19DataDeviceInterfaceD1Ev
libKWaylandServer.so.5:_ZN14KWaylandServer19DataDeviceInterfaceD2Ev
libKWaylandServer.so.5:_ZN14KWaylandServer19DataSourceInterface11dndFinishedEv
libKWaylandServer.so.5:_ZN14KWaylandServer19DataSourceInterface11qt_metacallEN11QMetaObject4CallEiPPv
libKWaylandServer.so.5:_ZN14KWaylandServer19DataSourceInterface11qt_metacastEPKc
libKWaylandServer.so.5:_ZN14KWaylandServer19DataSourceInterface11requestDataERK7QStringi
libKWaylandServer.so.5:_ZN14KWaylandServer19DataSourceInterface13dropPerformedEv
libKWaylandServer.so.5:_ZN14KWaylandServer19DataSourceInterface3getEP11wl_resource
libKWaylandServer.so.5:_ZN14KWaylandServer19DataSourceInterface6acceptERK7QString
libKWaylandServer.so.5:_ZN14KWaylandServer19DataSourceInterface6cancelEv
libKWaylandServer.so.5:_ZN14KWaylandServer19DataSourceInterface7Private13offerCallbackEP9wl_clientP11wl_resourcePKc
libKWaylandServer.so.5:_ZN14KWaylandServer19DataSourceInterface7Private18setActionsCallbackEP9wl_clientP11wl_resourcej
libKWaylandServer.so.5:_ZN14KWaylandServer19DataSourceInterface7Private5offerERK7QString
libKWaylandServer.so.5:_ZN14KWaylandServer19DataSourceInterface7PrivateC1EPS0_PNS_26DataDeviceManagerInterfaceEP11wl_resource
libKWaylandServer.so.5:_ZN14KWaylandServer19DataSourceInterface7PrivateC2EPS0_PNS_26DataDeviceManagerInterfaceEP11wl_resource
libKWaylandServer.so.5:_ZN14KWaylandServer19DataSourceInterface7PrivateD0Ev
libKWaylandServer.so.5:_ZN14KWaylandServer19DataSourceInterface7PrivateD1Ev
libKWaylandServer.so.5:_ZN14KWaylandServer19DataSourceInterface7PrivateD2Ev
libKWaylandServer.so.5:_ZN14KWaylandServer19DataSourceInterface9dndActionENS_26DataDeviceManagerInterface9DnDActionE
libKWaylandServer.so.5:_ZN14KWaylandServer19DataSourceInterfaceC1EPNS_26DataDeviceManagerInterfaceEP11wl_resource
libKWaylandServer.so.5:_ZN14KWaylandServer19DataSourceInterfaceC2EPNS_26DataDeviceManagerInterfaceEP11wl_resource
libKWaylandServer.so.5:_ZN14KWaylandServer19DataSourceInterfaceD0Ev
libKWaylandServer.so.5:_ZN14KWaylandServer19DataSourceInterfaceD1Ev
libKWaylandServer.so.5:_ZN14KWaylandServer19DataSourceInterfaceD2Ev
libKWaylandServer.so.5:_ZN14KWaylandServer19SubSurfaceInterface11modeChangedENS0_4ModeE
libKWaylandServer.so.5:_ZN14KWaylandServer19SubSurfaceInterface11qt_metacallEN11QMetaObject4CallEiPPv
libKWaylandServer.so.5:_ZN14KWaylandServer19SubSurfaceInterface11qt_metacastEPKc
libKWaylandServer.so.5:_ZN14KWaylandServer19SubSurfaceInterface13parentSurfaceEv
libKWaylandServer.so.5:_ZN14KWaylandServer19SubSurfaceInterface15positionChangedERK6QPoint
libKWaylandServer.so.5:_ZN14KWaylandServer19SubSurfaceInterface7Private10placeAboveEPNS_16SurfaceInterfaceE
libKWaylandServer.so.5:_ZN14KWaylandServer19SubSurfaceInterface7Private10placeBelowEPNS_16SurfaceInterfaceE
libKWaylandServer.so.5:_ZN14KWaylandServer19SubSurfaceInterface7Private11setPositionERK6QPoint
libKWaylandServer.so.5:_ZN14KWaylandServer19SubSurfaceInterface7Private15setSyncCallbackEP9wl_clientP11wl_resource
libKWaylandServer.so.5:_ZN14KWaylandServer19SubSurfaceInterface7Private17setDeSyncCallbackEP9wl_clientP11wl_resource
libKWaylandServer.so.5:_ZN14KWaylandServer19SubSurfaceInterface7Private18placeAboveCallbackEP9wl_clientP11wl_resourceS5_
libKWaylandServer.so.5:_ZN14KWaylandServer19SubSurfaceInterface7Private18placeBelowCallbackEP9wl_clientP11wl_resourceS5_
libKWaylandServer.so.5:_ZN14KWaylandServer19SubSurfaceInterface7Private19setPositionCallbackEP9wl_clientP11wl_resourceii
libKWaylandServer.so.5:_ZN14KWaylandServer19SubSurfaceInterface7Private6commitEv
libKWaylandServer.so.5:_ZN14KWaylandServer19SubSurfaceInterface7Private6createEPNS_16ClientConnectionEjjPNS_16SurfaceInterfaceES5_
libKWaylandServer.so.5:_ZN14KWaylandServer19SubSurfaceInterface7Private7setModeENS0_4ModeE
libKWaylandServer.so.5:_ZN14KWaylandServer19SubSurfaceInterface7PrivateC1EPS0_PNS_22SubCompositorInterfaceEP11wl_resource
libKWaylandServer.so.5:_ZN14KWaylandServer19SubSurfaceInterface7PrivateC2EPS0_PNS_22SubCompositorInterfaceEP11wl_resource
libKWaylandServer.so.5:_ZN14KWaylandServer19SubSurfaceInterface7PrivateD0Ev
libKWaylandServer.so.5:_ZN14KWaylandServer19SubSurfaceInterface7PrivateD1Ev
libKWaylandServer.so.5:_ZN14KWaylandServer19SubSurfaceInterface7PrivateD2Ev
libKWaylandServer.so.5:_ZN14KWaylandServer19SubSurfaceInterface7surfaceEv
libKWaylandServer.so.5:_ZN14KWaylandServer19SubSurfaceInterfaceC1EPNS_22SubCompositorInterfaceEP11wl_resource
libKWaylandServer.so.5:_ZN14KWaylandServer19SubSurfaceInterfaceC2EPNS_22SubCompositorInterfaceEP11wl_resource
libKWaylandServer.so.5:_ZN14KWaylandServer19SubSurfaceInterfaceD0Ev
libKWaylandServer.so.5:_ZN14KWaylandServer19SubSurfaceInterfaceD1Ev
libKWaylandServer.so.5:_ZN14KWaylandServer19SubSurfaceInterfaceD2Ev
libKWaylandServer.so.5:_ZN14KWaylandServer19TabletSeatInterface11qt_metacallEN11QMetaObject4CallEiPPv
libKWaylandServer.so.5:_ZN14KWaylandServer19TabletSeatInterface11qt_metacastEPKc
libKWaylandServer.so.5:_ZN14KWaylandServer19TabletSeatInterface12removeTabletERK7QString
libKWaylandServer.so.5:_ZN14KWaylandServer19TabletSeatInterface7addToolENS_19TabletToolInterface4TypeEyyRK7QVectorINS1_10CapabilityEE
libKWaylandServer.so.5:_ZN14KWaylandServer19TabletSeatInterface9addTabletEjjRK7QStringS3_RK11QStringList
libKWaylandServer.so.5:_ZN14KWaylandServer19TabletSeatInterfaceC1EPNS_7DisplayEP7QObject
libKWaylandServer.so.5:_ZN14KWaylandServer19TabletSeatInterfaceC2EPNS_7DisplayEP7QObject
libKWaylandServer.so.5:_ZN14KWaylandServer19TabletSeatInterfaceD0Ev
libKWaylandServer.so.5:_ZN14KWaylandServer19TabletSeatInterfaceD1Ev
libKWaylandServer.so.5:_ZN14KWaylandServer19TabletSeatInterfaceD2Ev
libKWaylandServer.so.5:_ZN14KWaylandServer19TabletToolInterface10sendButtonEjb
libKWaylandServer.so.5:_ZN14KWaylandServer19TabletToolInterface10sendMotionERK7QPointF
libKWaylandServer.so.5:_ZN14KWaylandServer19TabletToolInterface10sendSliderEi
libKWaylandServer.so.5:_ZN14KWaylandServer19TabletToolInterface11qt_metacallEN11QMetaObject4CallEiPPv
libKWaylandServer.so.5:_ZN14KWaylandServer19TabletToolInterface11qt_metacastEPKc
libKWaylandServer.so.5:_ZN14KWaylandServer19TabletToolInterface11sendRemovedEv
libKWaylandServer.so.5:_ZN14KWaylandServer19TabletToolInterface12sendDistanceEj
libKWaylandServer.so.5:_ZN14KWaylandServer19TabletToolInterface12sendPressureEj
libKWaylandServer.so.5:_ZN14KWaylandServer19TabletToolInterface12sendRotationEd
libKWaylandServer.so.5:_ZN14KWaylandServer19TabletToolInterface15sendProximityInEPNS_15TabletInterfaceE
libKWaylandServer.so.5:_ZN14KWaylandServer19TabletToolInterface16sendProximityOutEv
libKWaylandServer.so.5:_ZN14KWaylandServer19TabletToolInterface17setCurrentSurfaceEPNS_16SurfaceInterfaceE
libKWaylandServer.so.5:_ZN14KWaylandServer19TabletToolInterface6sendUpEv
libKWaylandServer.so.5:_ZN14KWaylandServer19TabletToolInterface8sendDownEv
libKWaylandServer.so.5:_ZN14KWaylandServer19TabletToolInterface8sendTiltEdd
libKWaylandServer.so.5:_ZN14KWaylandServer19TabletToolInterface9sendFrameEj
libKWaylandServer.so.5:_ZN14KWaylandServer19TabletToolInterface9sendWheelEii
libKWaylandServer.so.5:_ZN14KWaylandServer19TabletToolInterfaceC1EPNS_7DisplayENS0_4TypeEjjjjRK7QVectorINS0_10CapabilityEEP7QObject
libKWaylandServer.so.5:_ZN14KWaylandServer19TabletToolInterfaceC2EPNS_7DisplayENS0_4TypeEjjjjRK7QVectorINS0_10CapabilityEEP7QObject
libKWaylandServer.so.5:_ZN14KWaylandServer19TabletToolInterfaceD0Ev
libKWaylandServer.so.5:_ZN14KWaylandServer19TabletToolInterfaceD1Ev
libKWaylandServer.so.5:_ZN14KWaylandServer19TabletToolInterfaceD2Ev
libKWaylandServer.so.5:_ZN14KWaylandServer19ViewporterInterface11qt_metacallEN11QMetaObject4CallEiPPv
libKWaylandServer.so.5:_ZN14KWaylandServer19ViewporterInterface11qt_metacastEPKc
libKWaylandServer.so.5:_ZN14KWaylandServer19ViewporterInterfaceC1EPNS_7DisplayEP7QObject
libKWaylandServer.so.5:_ZN14KWaylandServer19ViewporterInterfaceC2EPNS_7DisplayEP7QObject
libKWaylandServer.so.5:_ZN14KWaylandServer19ViewporterInterfaceD0Ev
libKWaylandServer.so.5:_ZN14KWaylandServer19ViewporterInterfaceD1Ev
libKWaylandServer.so.5:_ZN14KWaylandServer19ViewporterInterfaceD2Ev
libKWaylandServer.so.5:_ZN14KWaylandServer19XdgSurfaceInterface11qt_metacallEN11QMetaObject4CallEiPPv
libKWaylandServer.so.5:_ZN14KWaylandServer19XdgSurfaceInterface11qt_metacastEPKc
libKWaylandServer.so.5:_ZN14KWaylandServer19XdgSurfaceInterface13resetOccurredEv
libKWaylandServer.so.5:_ZN14KWaylandServer19XdgSurfaceInterface21configureAcknowledgedEj
libKWaylandServer.so.5:_ZN14KWaylandServer19XdgSurfaceInterface21windowGeometryChangedERK5QRect
libKWaylandServer.so.5:_ZN14KWaylandServer19XdgSurfaceInterface3getEP11wl_resource
libKWaylandServer.so.5:_ZN14KWaylandServer19XdgSurfaceInterfaceC1EPNS_17XdgShellInterfaceEPNS_16SurfaceInterfaceEP11wl_resource
libKWaylandServer.so.5:_ZN14KWaylandServer19XdgSurfaceInterfaceC2EPNS_17XdgShellInterfaceEPNS_16SurfaceInterfaceEP11wl_resource
libKWaylandServer.so.5:_ZN14KWaylandServer19XdgSurfaceInterfaceD0Ev
libKWaylandServer.so.5:_ZN14KWaylandServer19XdgSurfaceInterfaceD1Ev
libKWaylandServer.so.5:_ZN14KWaylandServer19XdgSurfaceInterfaceD2Ev
libKWaylandServer.so.5:_ZN14KWaylandServer20BlurManagerInterface11qt_metacallEN11QMetaObject4CallEiPPv
libKWaylandServer.so.5:_ZN14KWaylandServer20BlurManagerInterface11qt_metacastEPKc
libKWaylandServer.so.5:_ZN14KWaylandServer20BlurManagerInterfaceC1EPNS_7DisplayEP7QObject
libKWaylandServer.so.5:_ZN14KWaylandServer20BlurManagerInterfaceC2EPNS_7DisplayEP7QObject
libKWaylandServer.so.5:_ZN14KWaylandServer20BlurManagerInterfaceD0Ev
libKWaylandServer.so.5:_ZN14KWaylandServer20BlurManagerInterfaceD1Ev
libKWaylandServer.so.5:_ZN14KWaylandServer20BlurManagerInterfaceD2Ev
libKWaylandServer.so.5:_ZN14KWaylandServer20DpmsManagerInterface11qt_metacallEN11QMetaObject4CallEiPPv
libKWaylandServer.so.5:_ZN14KWaylandServer20DpmsManagerInterface11qt_metacastEPKc
libKWaylandServer.so.5:_ZN14KWaylandServer20DpmsManagerInterfaceC1EPNS_7DisplayEP7QObject
libKWaylandServer.so.5:_ZN14KWaylandServer20DpmsManagerInterfaceC2EPNS_7DisplayEP7QObject
libKWaylandServer.so.5:_ZN14KWaylandServer20DpmsManagerInterfaceD0Ev
libKWaylandServer.so.5:_ZN14KWaylandServer20DpmsManagerInterfaceD1Ev
libKWaylandServer.so.5:_ZN14KWaylandServer20DpmsManagerInterfaceD2Ev
libKWaylandServer.so.5:_ZN14KWaylandServer20PlasmaShellInterface11qt_metacallEN11QMetaObject4CallEiPPv
libKWaylandServer.so.5:_ZN14KWaylandServer20PlasmaShellInterface11qt_metacastEPKc
libKWaylandServer.so.5:_ZN14KWaylandServer20PlasmaShellInterface14surfaceCreatedEPNS_27PlasmaShellSurfaceInterfaceE
libKWaylandServer.so.5:_ZN14KWaylandServer20PlasmaShellInterface7Private13createSurfaceEP9wl_clientjjPNS_16SurfaceInterfaceEP11wl_resource
libKWaylandServer.so.5:_ZN14KWaylandServer20PlasmaShellInterface7Private21createSurfaceCallbackEP9wl_clientP11wl_resourcejS5_
libKWaylandServer.so.5:_ZN14KWaylandServer20PlasmaShellInterface7Private4bindEP9wl_clientjj
libKWaylandServer.so.5:_ZN14KWaylandServer20PlasmaShellInterface7PrivateC1EPS0_PNS_7DisplayE
libKWaylandServer.so.5:_ZN14KWaylandServer20PlasmaShellInterface7PrivateC2EPS0_PNS_7DisplayE
libKWaylandServer.so.5:_ZN14KWaylandServer20PlasmaShellInterfaceC1EPNS_7DisplayEP7QObject
libKWaylandServer.so.5:_ZN14KWaylandServer20PlasmaShellInterfaceC2EPNS_7DisplayEP7QObject
libKWaylandServer.so.5:_ZN14KWaylandServer20PlasmaShellInterfaceD0Ev
libKWaylandServer.so.5:_ZN14KWaylandServer20PlasmaShellInterfaceD1Ev
libKWaylandServer.so.5:_ZN14KWaylandServer20PlasmaShellInterfaceD2Ev
libKWaylandServer.so.5:_ZN14KWaylandServer20XdgOutputV1Interface11qt_metacallEN11QMetaObject4CallEiPPv
libKWaylandServer.so.5:_ZN14KWaylandServer20XdgOutputV1Interface11qt_metacastEPKc
libKWaylandServer.so.5:_ZN14KWaylandServer20XdgOutputV1Interface14setDescriptionERK7QString
libKWaylandServer.so.5:_ZN14KWaylandServer20XdgOutputV1Interface14setLogicalSizeERK5QSize
libKWaylandServer.so.5:_ZN14KWaylandServer20XdgOutputV1Interface18setLogicalPositionERK6QPoint
libKWaylandServer.so.5:_ZN14KWaylandServer20XdgOutputV1Interface4doneEv
libKWaylandServer.so.5:_ZN14KWaylandServer20XdgOutputV1Interface7setNameERK7QString
libKWaylandServer.so.5:_ZN14KWaylandServer20XdgOutputV1InterfaceC1EP7QObject
libKWaylandServer.so.5:_ZN14KWaylandServer20XdgOutputV1InterfaceC2EP7QObject
libKWaylandServer.so.5:_ZN14KWaylandServer20XdgOutputV1InterfaceD0Ev
libKWaylandServer.so.5:_ZN14KWaylandServer20XdgOutputV1InterfaceD1Ev
libKWaylandServer.so.5:_ZN14KWaylandServer20XdgOutputV1InterfaceD2Ev
libKWaylandServer.so.5:_ZN14KWaylandServer20XdgToplevelInterface11qt_metacallEN11QMetaObject4CallEiPPv
libKWaylandServer.so.5:_ZN14KWaylandServer20XdgToplevelInterface11qt_metacastEPKc
libKWaylandServer.so.5:_ZN14KWaylandServer20XdgToplevelInterface13moveRequestedEPNS_13SeatInterfaceEj
libKWaylandServer.so.5:_ZN14KWaylandServer20XdgToplevelInterface13resetOccurredEv
libKWaylandServer.so.5:_ZN14KWaylandServer20XdgToplevelInterface13sendConfigureERK5QSizeRK6QFlagsINS0_5StateEE
libKWaylandServer.so.5:_ZN14KWaylandServer20XdgToplevelInterface15resizeRequestedEPNS_13SeatInterfaceE6QFlagsIN2Qt4EdgeEEj
libKWaylandServer.so.5:_ZN14KWaylandServer20XdgToplevelInterface17maximizeRequestedEv
libKWaylandServer.so.5:_ZN14KWaylandServer20XdgToplevelInterface17minimizeRequestedEv
libKWaylandServer.so.5:_ZN14KWaylandServer20XdgToplevelInterface18maximumSizeChangedERK5QSize
libKWaylandServer.so.5:_ZN14KWaylandServer20XdgToplevelInterface18minimumSizeChangedERK5QSize
libKWaylandServer.so.5:_ZN14KWaylandServer20XdgToplevelInterface18windowClassChangedERK7QString
libKWaylandServer.so.5:_ZN14KWaylandServer20XdgToplevelInterface18windowTitleChangedERK7QString
libKWaylandServer.so.5:_ZN14KWaylandServer20XdgToplevelInterface19fullscreenRequestedEPNS_15OutputInterfaceE
libKWaylandServer.so.5:_ZN14KWaylandServer20XdgToplevelInterface19initializeRequestedEv
libKWaylandServer.so.5:_ZN14KWaylandServer20XdgToplevelInterface19unmaximizeRequestedEv
libKWaylandServer.so.5:_ZN14KWaylandServer20XdgToplevelInterface19windowMenuRequestedEPNS_13SeatInterfaceERK6QPointj
libKWaylandServer.so.5:_ZN14KWaylandServer20XdgToplevelInterface21unfullscreenRequestedEv
libKWaylandServer.so.5:_ZN14KWaylandServer20XdgToplevelInterface24parentXdgToplevelChangedEv
libKWaylandServer.so.5:_ZN14KWaylandServer20XdgToplevelInterface3getEP11wl_resource
libKWaylandServer.so.5:_ZN14KWaylandServer20XdgToplevelInterface9sendCloseEv
libKWaylandServer.so.5:_ZN14KWaylandServer20XdgToplevelInterfaceC1EPNS_19XdgSurfaceInterfaceEP11wl_resource
libKWaylandServer.so.5:_ZN14KWaylandServer20XdgToplevelInterfaceC2EPNS_19XdgSurfaceInterfaceEP11wl_resource
libKWaylandServer.so.5:_ZN14KWaylandServer20XdgToplevelInterfaceD0Ev
libKWaylandServer.so.5:_ZN14KWaylandServer20XdgToplevelInterfaceD1Ev
libKWaylandServer.so.5:_ZN14KWaylandServer20XdgToplevelInterfaceD2Ev
libKWaylandServer.so.5:_ZN14KWaylandServer21InputPanelV1Interface11qt_metacallEN11QMetaObject4CallEiPPv
libKWaylandServer.so.5:_ZN14KWaylandServer21InputPanelV1Interface11qt_metacastEPKc
libKWaylandServer.so.5:_ZN14KWaylandServer21InputPanelV1Interface22inputPanelSurfaceAddedEPNS_28InputPanelSurfaceV1InterfaceE
libKWaylandServer.so.5:_ZN14KWaylandServer21InputPanelV1InterfaceC1EPNS_7DisplayEP7QObject
libKWaylandServer.so.5:_ZN14KWaylandServer21InputPanelV1InterfaceC2EPNS_7DisplayEP7QObject
libKWaylandServer.so.5:_ZN14KWaylandServer21InputPanelV1InterfaceD0Ev
libKWaylandServer.so.5:_ZN14KWaylandServer21InputPanelV1InterfaceD1Ev
libKWaylandServer.so.5:_ZN14KWaylandServer21InputPanelV1InterfaceD2Ev
libKWaylandServer.so.5:_ZN14KWaylandServer21LayerShellV1Interface11qt_metacallEN11QMetaObject4CallEiPPv
libKWaylandServer.so.5:_ZN14KWaylandServer21LayerShellV1Interface11qt_metacastEPKc
libKWaylandServer.so.5:_ZN14KWaylandServer21LayerShellV1Interface14surfaceCreatedEPNS_23LayerSurfaceV1InterfaceE
libKWaylandServer.so.5:_ZN14KWaylandServer21LayerShellV1InterfaceC1EPNS_7DisplayEP7QObject
libKWaylandServer.so.5:_ZN14KWaylandServer21LayerShellV1InterfaceC2EPNS_7DisplayEP7QObject
libKWaylandServer.so.5:_ZN14KWaylandServer21LayerShellV1InterfaceD0Ev
libKWaylandServer.so.5:_ZN14KWaylandServer21LayerShellV1InterfaceD1Ev
libKWaylandServer.so.5:_ZN14KWaylandServer21LayerShellV1InterfaceD2Ev
libKWaylandServer.so.5:_ZN14KWaylandServer21OutputDeviceInterface10setEnabledENS0_10EnablementE
libKWaylandServer.so.5:_ZN14KWaylandServer21OutputDeviceInterface11edidChangedEv
libKWaylandServer.so.5:_ZN14KWaylandServer21OutputDeviceInterface11qt_metacallEN11QMetaObject4CallEiPPv
libKWaylandServer.so.5:_ZN14KWaylandServer21OutputDeviceInterface11qt_metacastEPKc
libKWaylandServer.so.5:_ZN14KWaylandServer21OutputDeviceInterface11setSubPixelENS0_8SubPixelE
libKWaylandServer.so.5:_ZN14KWaylandServer21OutputDeviceInterface11uuidChangedEv
libKWaylandServer.so.5:_ZN14KWaylandServer21OutputDeviceInterface12modelChangedERK7QString
libKWaylandServer.so.5:_ZN14KWaylandServer21OutputDeviceInterface12modesChangedEv
libKWaylandServer.so.5:_ZN14KWaylandServer21OutputDeviceInterface12scaleChangedEi
libKWaylandServer.so.5:_ZN14KWaylandServer21OutputDeviceInterface12setTransformENS0_9TransformE
libKWaylandServer.so.5:_ZN14KWaylandServer21OutputDeviceInterface13eisaIdChangedERK7QString
libKWaylandServer.so.5:_ZN14KWaylandServer21OutputDeviceInterface13scaleFChangedEd
libKWaylandServer.so.5:_ZN14KWaylandServer21OutputDeviceInterface14enabledChangedEv
libKWaylandServer.so.5:_ZN14KWaylandServer21OutputDeviceInterface14setColorCurvesERKNS0_11ColorCurvesE
libKWaylandServer.so.5:_ZN14KWaylandServer21OutputDeviceInterface14setCurrentModeEi
libKWaylandServer.so.5:_ZN14KWaylandServer21OutputDeviceInterface15setManufacturerERK7QString
libKWaylandServer.so.5:_ZN14KWaylandServer21OutputDeviceInterface15setPhysicalSizeERK5QSize
libKWaylandServer.so.5:_ZN14KWaylandServer21OutputDeviceInterface15setSerialNumberERK7QString
libKWaylandServer.so.5:_ZN14KWaylandServer21OutputDeviceInterface15subPixelChangedENS0_8SubPixelE
libKWaylandServer.so.5:_ZN14KWaylandServer21OutputDeviceInterface16pixelSizeChangedERK5QSize
libKWaylandServer.so.5:_ZN14KWaylandServer21OutputDeviceInterface16transformChangedENS0_9TransformE
libKWaylandServer.so.5:_ZN14KWaylandServer21OutputDeviceInterface17setGlobalPositionERK6QPoint
libKWaylandServer.so.5:_ZN14KWaylandServer21OutputDeviceInterface18colorCurvesChangedENS0_11ColorCurvesE
libKWaylandServer.so.5:_ZN14KWaylandServer21OutputDeviceInterface18currentModeChangedEv
libKWaylandServer.so.5:_ZN14KWaylandServer21OutputDeviceInterface18refreshRateChangedEi
libKWaylandServer.so.5:_ZN14KWaylandServer21OutputDeviceInterface19manufacturerChangedERK7QString
libKWaylandServer.so.5:_ZN14KWaylandServer21OutputDeviceInterface19physicalSizeChangedERK5QSize
libKWaylandServer.so.5:_ZN14KWaylandServer21OutputDeviceInterface19serialNumberChangedERK7QString
libKWaylandServer.so.5:_ZN14KWaylandServer21OutputDeviceInterface21globalPositionChangedERK6QPoint
libKWaylandServer.so.5:_ZN14KWaylandServer21OutputDeviceInterface3getEP11wl_resource
libKWaylandServer.so.5:_ZN14KWaylandServer21OutputDeviceInterface7Private10sendEisaIdERKNS1_12ResourceDataE
libKWaylandServer.so.5:_ZN14KWaylandServer21OutputDeviceInterface7Private10updateEdidEv
libKWaylandServer.so.5:_ZN14KWaylandServer21OutputDeviceInterface7Private10updateUuidEv
libKWaylandServer.so.5:_ZN14KWaylandServer21OutputDeviceInterface7Private11sendEnabledERKNS1_12ResourceDataE
libKWaylandServer.so.5:_ZN14KWaylandServer21OutputDeviceInterface7Private11updateScaleEv
libKWaylandServer.so.5:_ZN14KWaylandServer21OutputDeviceInterface7Private12sendGeometryEP11wl_resource
libKWaylandServer.so.5:_ZN14KWaylandServer21OutputDeviceInterface7Private12updateEisaIdEv
libKWaylandServer.so.5:_ZN14KWaylandServer21OutputDeviceInterface7Private13updateEnabledEv
libKWaylandServer.so.5:_ZN14KWaylandServer21OutputDeviceInterface7Private14updateGeometryEv
libKWaylandServer.so.5:_ZN14KWaylandServer21OutputDeviceInterface7Private15sendColorCurvesERKNS1_12ResourceDataE
libKWaylandServer.so.5:_ZN14KWaylandServer21OutputDeviceInterface7Private16sendSerialNumberERKNS1_12ResourceDataE
libKWaylandServer.so.5:_ZN14KWaylandServer21OutputDeviceInterface7Private17updateColorCurvesEv
libKWaylandServer.so.5:_ZN14KWaylandServer21OutputDeviceInterface7Private3getEP11wl_resource
libKWaylandServer.so.5:_ZN14KWaylandServer21OutputDeviceInterface7Private4bindEP9wl_clientjj
libKWaylandServer.so.5:_ZN14KWaylandServer21OutputDeviceInterface7Private4castEP11wl_resource
libKWaylandServer.so.5:_ZN14KWaylandServer21OutputDeviceInterface7Private6unbindEP11wl_resource
libKWaylandServer.so.5:_ZN14KWaylandServer21OutputDeviceInterface7Private8sendDoneERKNS1_12ResourceDataE
libKWaylandServer.so.5:_ZN14KWaylandServer21OutputDeviceInterface7Private8sendEdidERKNS1_12ResourceDataE
libKWaylandServer.so.5:_ZN14KWaylandServer21OutputDeviceInterface7Private8sendModeEP11wl_resourceRKNS0_4ModeE
libKWaylandServer.so.5:_ZN14KWaylandServer21OutputDeviceInterface7Private8sendUuidERKNS1_12ResourceDataE
libKWaylandServer.so.5:_ZN14KWaylandServer21OutputDeviceInterface7Private9sendScaleERKNS1_12ResourceDataE
libKWaylandServer.so.5:_ZN14KWaylandServer21OutputDeviceInterface7PrivateC1EPS0_PNS_7DisplayE
libKWaylandServer.so.5:_ZN14KWaylandServer21OutputDeviceInterface7PrivateC2EPS0_PNS_7DisplayE
libKWaylandServer.so.5:_ZN14KWaylandServer21OutputDeviceInterface7PrivateD0Ev
libKWaylandServer.so.5:_ZN14KWaylandServer21OutputDeviceInterface7PrivateD1Ev
libKWaylandServer.so.5:_ZN14KWaylandServer21OutputDeviceInterface7PrivateD2Ev
libKWaylandServer.so.5:_ZN14KWaylandServer21OutputDeviceInterface7addModeERNS0_4ModeE
libKWaylandServer.so.5:_ZN14KWaylandServer21OutputDeviceInterface7setEdidERK10QByteArray
libKWaylandServer.so.5:_ZN14KWaylandServer21OutputDeviceInterface7setUuidERK10QByteArray
libKWaylandServer.so.5:_ZN14KWaylandServer21OutputDeviceInterface8setModelERK7QString
libKWaylandServer.so.5:_ZN14KWaylandServer21OutputDeviceInterface8setScaleEi
libKWaylandServer.so.5:_ZN14KWaylandServer21OutputDeviceInterface9setEisaIdERK7QString
libKWaylandServer.so.5:_ZN14KWaylandServer21OutputDeviceInterface9setScaleFEd
libKWaylandServer.so.5:_ZN14KWaylandServer21OutputDeviceInterfaceC1EPNS_7DisplayEP7QObject
libKWaylandServer.so.5:_ZN14KWaylandServer21OutputDeviceInterfaceC2EPNS_7DisplayEP7QObject
libKWaylandServer.so.5:_ZN14KWaylandServer21OutputDeviceInterfaceD0Ev
libKWaylandServer.so.5:_ZN14KWaylandServer21OutputDeviceInterfaceD1Ev
libKWaylandServer.so.5:_ZN14KWaylandServer21OutputDeviceInterfaceD2Ev
libKWaylandServer.so.5:_ZN14KWaylandServer21PlasmaWindowInterface10setMovableEb
libKWaylandServer.so.5:_ZN14KWaylandServer21PlasmaWindowInterface11qt_metacallEN11QMetaObject4CallEiPPv
libKWaylandServer.so.5:_ZN14KWaylandServer21PlasmaWindowInterface11qt_metacastEPKc
libKWaylandServer.so.5:_ZN14KWaylandServer21PlasmaWindowInterface11setGeometryERK5QRect
libKWaylandServer.so.5:_ZN14KWaylandServer21PlasmaWindowInterface12setCloseableEb
libKWaylandServer.so.5:_ZN14KWaylandServer21PlasmaWindowInterface12setKeepAboveEb
libKWaylandServer.so.5:_ZN14KWaylandServer21PlasmaWindowInterface12setKeepBelowEb
libKWaylandServer.so.5:_ZN14KWaylandServer21PlasmaWindowInterface12setMaximizedEb
libKWaylandServer.so.5:_ZN14KWaylandServer21PlasmaWindowInterface12setMinimizedEb
libKWaylandServer.so.5:_ZN14KWaylandServer21PlasmaWindowInterface12setResizableEb
libKWaylandServer.so.5:_ZN14KWaylandServer21PlasmaWindowInterface12setShadeableEb
libKWaylandServer.so.5:_ZN14KWaylandServer21PlasmaWindowInterface13moveRequestedEv
libKWaylandServer.so.5:_ZN14KWaylandServer21PlasmaWindowInterface13setFullscreenEb
libKWaylandServer.so.5:_ZN14KWaylandServer21PlasmaWindowInterface14closeRequestedEv
libKWaylandServer.so.5:_ZN14KWaylandServer21PlasmaWindowInterface14setSkipTaskbarEb
libKWaylandServer.so.5:_ZN14KWaylandServer21PlasmaWindowInterface15activeRequestedEb
libKWaylandServer.so.5:_ZN14KWaylandServer21PlasmaWindowInterface15resizeRequestedEv
libKWaylandServer.so.5:_ZN14KWaylandServer21PlasmaWindowInterface15setMaximizeableEb
libKWaylandServer.so.5:_ZN14KWaylandServer21PlasmaWindowInterface15setMinimizeableEb
libKWaylandServer.so.5:_ZN14KWaylandServer21PlasmaWindowInterface15setParentWindowEPS0_
libKWaylandServer.so.5:_ZN14KWaylandServer21PlasmaWindowInterface15setSkipSwitcherEb
libKWaylandServer.so.5:_ZN14KWaylandServer21PlasmaWindowInterface15shadedRequestedEb
libKWaylandServer.so.5:_ZN14KWaylandServer21PlasmaWindowInterface16movableRequestedEb
libKWaylandServer.so.5:_ZN14KWaylandServer21PlasmaWindowInterface16setOnAllDesktopsEb
libKWaylandServer.so.5:_ZN14KWaylandServer21PlasmaWindowInterface17setFullscreenableEb
libKWaylandServer.so.5:_ZN14KWaylandServer21PlasmaWindowInterface17setThemedIconNameERK7QString
libKWaylandServer.so.5:_ZN14KWaylandServer21PlasmaWindowInterface17setVirtualDesktopEj
libKWaylandServer.so.5:_ZN14KWaylandServer21PlasmaWindowInterface18closeableRequestedEb
libKWaylandServer.so.5:_ZN14KWaylandServer21PlasmaWindowInterface18keepAboveRequestedEb
libKWaylandServer.so.5:_ZN14KWaylandServer21PlasmaWindowInterface18keepBelowRequestedEb
libKWaylandServer.so.5:_ZN14KWaylandServer21PlasmaWindowInterface18maximizedRequestedEb
libKWaylandServer.so.5:_ZN14KWaylandServer21PlasmaWindowInterface18minimizedRequestedEb
libKWaylandServer.so.5:_ZN14KWaylandServer21PlasmaWindowInterface18resizableRequestedEb
libKWaylandServer.so.5:_ZN14KWaylandServer21PlasmaWindowInterface18shadeableRequestedEb
libKWaylandServer.so.5:_ZN14KWaylandServer21PlasmaWindowInterface19fullscreenRequestedEb
libKWaylandServer.so.5:_ZN14KWaylandServer21PlasmaWindowInterface19setDemandsAttentionEb
libKWaylandServer.so.5:_ZN14KWaylandServer21PlasmaWindowInterface20skipTaskbarRequestedEb
libKWaylandServer.so.5:_ZN14KWaylandServer21PlasmaWindowInterface21maximizeableRequestedEb
libKWaylandServer.so.5:_ZN14KWaylandServer21PlasmaWindowInterface21minimizeableRequestedEb
libKWaylandServer.so.5:_ZN14KWaylandServer21PlasmaWindowInterface21skipSwitcherRequestedEb
libKWaylandServer.so.5:_ZN14KWaylandServer21PlasmaWindowInterface23addPlasmaVirtualDesktopERK7QString
libKWaylandServer.so.5:_ZN14KWaylandServer21PlasmaWindowInterface23fullscreenableRequestedEb
libKWaylandServer.so.5:_ZN14KWaylandServer21PlasmaWindowInterface23setApplicationMenuPathsERK7QStringS3_
libKWaylandServer.so.5:_ZN14KWaylandServer21PlasmaWindowInterface23virtualDesktopRequestedEj
libKWaylandServer.so.5:_ZN14KWaylandServer21PlasmaWindowInterface25demandsAttentionRequestedEb
libKWaylandServer.so.5:_ZN14KWaylandServer21PlasmaWindowInterface26minimizedGeometriesChangedEv
libKWaylandServer.so.5:_ZN14KWaylandServer21PlasmaWindowInterface26removePlasmaVirtualDesktopERK7QString
libKWaylandServer.so.5:_ZN14KWaylandServer21PlasmaWindowInterface27setVirtualDesktopChangeableEb
libKWaylandServer.so.5:_ZN14KWaylandServer21PlasmaWindowInterface33virtualDesktopChangeableRequestedEb
libKWaylandServer.so.5:_ZN14KWaylandServer21PlasmaWindowInterface34enterPlasmaVirtualDesktopRequestedERK7QString
libKWaylandServer.so.5:_ZN14KWaylandServer21PlasmaWindowInterface34leavePlasmaVirtualDesktopRequestedERK7QString
libKWaylandServer.so.5:_ZN14KWaylandServer21PlasmaWindowInterface37enterNewPlasmaVirtualDesktopRequestedEv
libKWaylandServer.so.5:_ZN14KWaylandServer21PlasmaWindowInterface5unmapEv
libKWaylandServer.so.5:_ZN14KWaylandServer21PlasmaWindowInterface6setPidEj
libKWaylandServer.so.5:_ZN14KWaylandServer21PlasmaWindowInterface7Private11setGeometryERK5QRect
libKWaylandServer.so.5:_ZN14KWaylandServer21PlasmaWindowInterface7Private13closeCallbackEP9wl_clientP11wl_resource
libKWaylandServer.so.5:_ZN14KWaylandServer21PlasmaWindowInterface7Private14createResourceEP11wl_resourcej
libKWaylandServer.so.5:_ZN14KWaylandServer21PlasmaWindowInterface7Private15destroyCallbackEP9wl_clientP11wl_resource
libKWaylandServer.so.5:_ZN14KWaylandServer21PlasmaWindowInterface7Private15getIconCallbackEP9wl_clientP11wl_resourcei
libKWaylandServer.so.5:_ZN14KWaylandServer21PlasmaWindowInterface7Private15setParentWindowEPS0_
libKWaylandServer.so.5:_ZN14KWaylandServer21PlasmaWindowInterface7Private16setStateCallbackEP9wl_clientP11wl_resourcejj
libKWaylandServer.so.5:_ZN14KWaylandServer21PlasmaWindowInterface7Private17setThemedIconNameERK7QString
libKWaylandServer.so.5:_ZN14KWaylandServer21PlasmaWindowInterface7Private17setVirtualDesktopEj
libKWaylandServer.so.5:_ZN14KWaylandServer21PlasmaWindowInterface7Private19requestMoveCallbackEP9wl_clientP11wl_resource
libKWaylandServer.so.5:_ZN14KWaylandServer21PlasmaWindowInterface7Private21requestResizeCallbackEP9wl_clientP11wl_resource
libKWaylandServer.so.5:_ZN14KWaylandServer21PlasmaWindowInterface7Private23setApplicationMenuPathsERK7QStringS4_
libKWaylandServer.so.5:_ZN14KWaylandServer21PlasmaWindowInterface7Private25setVirtualDesktopCallbackEP9wl_clientP11wl_resourcej
libKWaylandServer.so.5:_ZN14KWaylandServer21PlasmaWindowInterface7Private28setMinimizedGeometryCallbackEP9wl_clientP11wl_resourceS5_jjjj
libKWaylandServer.so.5:_ZN14KWaylandServer21PlasmaWindowInterface7Private30unsetMinimizedGeometryCallbackEP9wl_clientP11wl_resourceS5_
libKWaylandServer.so.5:_ZN14KWaylandServer21PlasmaWindowInterface7Private34requestEnterVirtualDesktopCallbackEP9wl_clientP11wl_resourcePKc
libKWaylandServer.so.5:_ZN14KWaylandServer21PlasmaWindowInterface7Private34requestLeaveVirtualDesktopCallbackEP9wl_clientP11wl_resourcePKc
libKWaylandServer.so.5:_ZN14KWaylandServer21PlasmaWindowInterface7Private37requestEnterNewVirtualDesktopCallbackEP9wl_clientP11wl_resource
libKWaylandServer.so.5:_ZN14KWaylandServer21PlasmaWindowInterface7Private5unmapEv
libKWaylandServer.so.5:_ZN14KWaylandServer21PlasmaWindowInterface7Private6setPidEj
libKWaylandServer.so.5:_ZN14KWaylandServer21PlasmaWindowInterface7Private6unbindEP11wl_resource
libKWaylandServer.so.5:_ZN14KWaylandServer21PlasmaWindowInterface7Private7setIconERK5QIcon
libKWaylandServer.so.5:_ZN14KWaylandServer21PlasmaWindowInterface7Private8setAppIdERK7QString
libKWaylandServer.so.5:_ZN14KWaylandServer21PlasmaWindowInterface7Private8setStateE38org_kde_plasma_window_management_stateb
libKWaylandServer.so.5:_ZN14KWaylandServer21PlasmaWindowInterface7Private8setTitleERK7QString
libKWaylandServer.so.5:_ZN14KWaylandServer21PlasmaWindowInterface7PrivateC1EPNS_31PlasmaWindowManagementInterfaceEPS0_
libKWaylandServer.so.5:_ZN14KWaylandServer21PlasmaWindowInterface7PrivateC2EPNS_31PlasmaWindowManagementInterfaceEPS0_
libKWaylandServer.so.5:_ZN14KWaylandServer21PlasmaWindowInterface7PrivateD1Ev
libKWaylandServer.so.5:_ZN14KWaylandServer21PlasmaWindowInterface7PrivateD2Ev
libKWaylandServer.so.5:_ZN14KWaylandServer21PlasmaWindowInterface7setIconERK5QIcon
libKWaylandServer.so.5:_ZN14KWaylandServer21PlasmaWindowInterface8setAppIdERK7QString
libKWaylandServer.so.5:_ZN14KWaylandServer21PlasmaWindowInterface8setTitleERK7QString
libKWaylandServer.so.5:_ZN14KWaylandServer21PlasmaWindowInterface9setActiveEb
libKWaylandServer.so.5:_ZN14KWaylandServer21PlasmaWindowInterface9setShadedEb
libKWaylandServer.so.5:_ZN14KWaylandServer21PlasmaWindowInterfaceC1EPNS_31PlasmaWindowManagementInterfaceEP7QObject
libKWaylandServer.so.5:_ZN14KWaylandServer21PlasmaWindowInterfaceC2EPNS_31PlasmaWindowManagementInterfaceEP7QObject
libKWaylandServer.so.5:_ZN14KWaylandServer21PlasmaWindowInterfaceD0Ev
libKWaylandServer.so.5:_ZN14KWaylandServer21PlasmaWindowInterfaceD1Ev
libKWaylandServer.so.5:_ZN14KWaylandServer21PlasmaWindowInterfaceD2Ev
libKWaylandServer.so.5:_ZN14KWaylandServer21ScreencastV1Interface11qt_metacallEN11QMetaObject4CallEiPPv
libKWaylandServer.so.5:_ZN14KWaylandServer21ScreencastV1Interface11qt_metacastEPKc
libKWaylandServer.so.5:_ZN14KWaylandServer21ScreencastV1Interface25outputScreencastRequestedEPNS_27ScreencastStreamV1InterfaceEPNS_15OutputInterfaceENS0_10CursorModeE
libKWaylandServer.so.5:_ZN14KWaylandServer21ScreencastV1Interface25windowScreencastRequestedEPNS_27ScreencastStreamV1InterfaceERK7QStringNS0_10CursorModeE
libKWaylandServer.so.5:_ZN14KWaylandServer21ScreencastV1InterfaceC1EPNS_7DisplayEP7QObject
libKWaylandServer.so.5:_ZN14KWaylandServer21ScreencastV1InterfaceC2EPNS_7DisplayEP7QObject
libKWaylandServer.so.5:_ZN14KWaylandServer21ScreencastV1InterfaceD0Ev
libKWaylandServer.so.5:_ZN14KWaylandServer21ScreencastV1InterfaceD1Ev
libKWaylandServer.so.5:_ZN14KWaylandServer21ScreencastV1InterfaceD2Ev
libKWaylandServer.so.5:_ZN14KWaylandServer21SlideManagerInterface11qt_metacallEN11QMetaObject4CallEiPPv
libKWaylandServer.so.5:_ZN14KWaylandServer21SlideManagerInterface11qt_metacastEPKc
libKWaylandServer.so.5:_ZN14KWaylandServer21SlideManagerInterface7Private11createSlideEP9wl_clientP11wl_resourcejS5_
libKWaylandServer.so.5:_ZN14KWaylandServer21SlideManagerInterface7Private13unsetCallbackEP9wl_clientP11wl_resourceS5_
libKWaylandServer.so.5:_ZN14KWaylandServer21SlideManagerInterface7Private14createCallbackEP9wl_clientP11wl_resourcejS5_
libKWaylandServer.so.5:_ZN14KWaylandServer21SlideManagerInterface7Private4bindEP9wl_clientjj
libKWaylandServer.so.5:_ZN14KWaylandServer21SlideManagerInterface7Private6unbindEP11wl_resource
libKWaylandServer.so.5:_ZN14KWaylandServer21SlideManagerInterface7PrivateC1EPS0_PNS_7DisplayE
libKWaylandServer.so.5:_ZN14KWaylandServer21SlideManagerInterface7PrivateC2EPS0_PNS_7DisplayE
libKWaylandServer.so.5:_ZN14KWaylandServer21SlideManagerInterfaceC1EPNS_7DisplayEP7QObject
libKWaylandServer.so.5:_ZN14KWaylandServer21SlideManagerInterfaceC2EPNS_7DisplayEP7QObject
libKWaylandServer.so.5:_ZN14KWaylandServer21SlideManagerInterfaceD0Ev
libKWaylandServer.so.5:_ZN14KWaylandServer21SlideManagerInterfaceD1Ev
libKWaylandServer.so.5:_ZN14KWaylandServer21SlideManagerInterfaceD2Ev
libKWaylandServer.so.5:_ZN14KWaylandServer21XdgForeignV2Interface11qt_metacallEN11QMetaObject4CallEiPPv
libKWaylandServer.so.5:_ZN14KWaylandServer21XdgForeignV2Interface11qt_metacastEPKc
libKWaylandServer.so.5:_ZN14KWaylandServer21XdgForeignV2Interface12transientForEPNS_16SurfaceInterfaceE
libKWaylandServer.so.5:_ZN14KWaylandServer21XdgForeignV2Interface16transientChangedEPNS_16SurfaceInterfaceES2_
libKWaylandServer.so.5:_ZN14KWaylandServer21XdgForeignV2InterfaceC1EPNS_7DisplayEP7QObject
libKWaylandServer.so.5:_ZN14KWaylandServer21XdgForeignV2InterfaceC2EPNS_7DisplayEP7QObject
libKWaylandServer.so.5:_ZN14KWaylandServer21XdgForeignV2InterfaceD0Ev
libKWaylandServer.so.5:_ZN14KWaylandServer21XdgForeignV2InterfaceD1Ev
libKWaylandServer.so.5:_ZN14KWaylandServer21XdgForeignV2InterfaceD2Ev
libKWaylandServer.so.5:_ZN14KWaylandServer22InputMethodV1Interface11qt_metacallEN11QMetaObject4CallEiPPv
libKWaylandServer.so.5:_ZN14KWaylandServer22InputMethodV1Interface11qt_metacastEPKc
libKWaylandServer.so.5:_ZN14KWaylandServer22InputMethodV1Interface12sendActivateEv
libKWaylandServer.so.5:_ZN14KWaylandServer22InputMethodV1Interface14sendDeactivateEv
libKWaylandServer.so.5:_ZN14KWaylandServer22InputMethodV1InterfaceC1EPNS_7DisplayEP7QObject
libKWaylandServer.so.5:_ZN14KWaylandServer22InputMethodV1InterfaceC2EPNS_7DisplayEP7QObject
libKWaylandServer.so.5:_ZN14KWaylandServer22InputMethodV1InterfaceD0Ev
libKWaylandServer.so.5:_ZN14KWaylandServer22InputMethodV1InterfaceD1Ev
libKWaylandServer.so.5:_ZN14KWaylandServer22InputMethodV1InterfaceD2Ev
libKWaylandServer.so.5:_ZN14KWaylandServer22LockedPointerInterface11qt_metacallEN11QMetaObject4CallEiPPv
libKWaylandServer.so.5:_ZN14KWaylandServer22LockedPointerInterface11qt_metacastEPKc
libKWaylandServer.so.5:_ZN14KWaylandServer22LockedPointerInterface13lockedChangedEv
libKWaylandServer.so.5:_ZN14KWaylandServer22LockedPointerInterface13regionChangedEv
libKWaylandServer.so.5:_ZN14KWaylandServer22LockedPointerInterface25cursorPositionHintChangedEv
libKWaylandServer.so.5:_ZN14KWaylandServer22LockedPointerInterface7Private6commitEv
libKWaylandServer.so.5:_ZN14KWaylandServer22LockedPointerInterface7PrivateC1ENS_34PointerConstraintsInterfaceVersionEPS0_PNS_6GlobalEP11wl_resourcePK12wl_interfacePKv
libKWaylandServer.so.5:_ZN14KWaylandServer22LockedPointerInterface7PrivateC2ENS_34PointerConstraintsInterfaceVersionEPS0_PNS_6GlobalEP11wl_resourcePK12wl_interfacePKv
libKWaylandServer.so.5:_ZN14KWaylandServer22LockedPointerInterface7PrivateD0Ev
libKWaylandServer.so.5:_ZN14KWaylandServer22LockedPointerInterface7PrivateD1Ev
libKWaylandServer.so.5:_ZN14KWaylandServer22LockedPointerInterface7PrivateD2Ev
libKWaylandServer.so.5:_ZN14KWaylandServer22LockedPointerInterface9setLockedEb
libKWaylandServer.so.5:_ZN14KWaylandServer22LockedPointerInterfaceC1EPNS0_7PrivateEP7QObject
libKWaylandServer.so.5:_ZN14KWaylandServer22LockedPointerInterfaceC2EPNS0_7PrivateEP7QObject
libKWaylandServer.so.5:_ZN14KWaylandServer22LockedPointerInterfaceD0Ev
libKWaylandServer.so.5:_ZN14KWaylandServer22LockedPointerInterfaceD1Ev
libKWaylandServer.so.5:_ZN14KWaylandServer22LockedPointerInterfaceD2Ev
libKWaylandServer.so.5:_ZN14KWaylandServer22ShadowManagerInterface11qt_metacallEN11QMetaObject4CallEiPPv
libKWaylandServer.so.5:_ZN14KWaylandServer22ShadowManagerInterface11qt_metacastEPKc
libKWaylandServer.so.5:_ZN14KWaylandServer22ShadowManagerInterfaceC1EPNS_7DisplayEP7QObject
libKWaylandServer.so.5:_ZN14KWaylandServer22ShadowManagerInterfaceC2EPNS_7DisplayEP7QObject
libKWaylandServer.so.5:_ZN14KWaylandServer22ShadowManagerInterfaceD0Ev
libKWaylandServer.so.5:_ZN14KWaylandServer22ShadowManagerInterfaceD1Ev
libKWaylandServer.so.5:_ZN14KWaylandServer22ShadowManagerInterfaceD2Ev
libKWaylandServer.so.5:_ZN14KWaylandServer22SubCompositorInterface11qt_metacallEN11QMetaObject4CallEiPPv
libKWaylandServer.so.5:_ZN14KWaylandServer22SubCompositorInterface11qt_metacastEPKc
libKWaylandServer.so.5:_ZN14KWaylandServer22SubCompositorInterface17subSurfaceCreatedEPNS_19SubSurfaceInterfaceE
libKWaylandServer.so.5:_ZN14KWaylandServer22SubCompositorInterface7Private10subsurfaceEP9wl_clientP11wl_resourcejS5_S5_
libKWaylandServer.so.5:_ZN14KWaylandServer22SubCompositorInterface7Private15destroyCallbackEP9wl_clientP11wl_resource
libKWaylandServer.so.5:_ZN14KWaylandServer22SubCompositorInterface7Private18subsurfaceCallbackEP9wl_clientP11wl_resourcejS5_S5_
libKWaylandServer.so.5:_ZN14KWaylandServer22SubCompositorInterface7Private4bindEP9wl_clientjj
libKWaylandServer.so.5:_ZN14KWaylandServer22SubCompositorInterface7Private6unbindEP11wl_resource
libKWaylandServer.so.5:_ZN14KWaylandServer22SubCompositorInterface7PrivateC1EPS0_PNS_7DisplayE
libKWaylandServer.so.5:_ZN14KWaylandServer22SubCompositorInterface7PrivateC2EPS0_PNS_7DisplayE
libKWaylandServer.so.5:_ZN14KWaylandServer22SubCompositorInterfaceC1EPNS_7DisplayEP7QObject
libKWaylandServer.so.5:_ZN14KWaylandServer22SubCompositorInterfaceC2EPNS_7DisplayEP7QObject
libKWaylandServer.so.5:_ZN14KWaylandServer22SubCompositorInterfaceD0Ev
libKWaylandServer.so.5:_ZN14KWaylandServer22SubCompositorInterfaceD1Ev
libKWaylandServer.so.5:_ZN14KWaylandServer22SubCompositorInterfaceD2Ev
libKWaylandServer.so.5:_ZN14KWaylandServer22TabletManagerInterface11qt_metacallEN11QMetaObject4CallEiPPv
libKWaylandServer.so.5:_ZN14KWaylandServer22TabletManagerInterface11qt_metacastEPKc
libKWaylandServer.so.5:_ZN14KWaylandServer22TabletManagerInterfaceC1EPNS_7DisplayEP7QObject
libKWaylandServer.so.5:_ZN14KWaylandServer22TabletManagerInterfaceC2EPNS_7DisplayEP7QObject
libKWaylandServer.so.5:_ZN14KWaylandServer22TabletManagerInterfaceD0Ev
libKWaylandServer.so.5:_ZN14KWaylandServer22TabletManagerInterfaceD1Ev
libKWaylandServer.so.5:_ZN14KWaylandServer22TabletManagerInterfaceD2Ev
libKWaylandServer.so.5:_ZN14KWaylandServer23AppMenuManagerInterface11qt_metacallEN11QMetaObject4CallEiPPv
libKWaylandServer.so.5:_ZN14KWaylandServer23AppMenuManagerInterface11qt_metacastEPKc
libKWaylandServer.so.5:_ZN14KWaylandServer23AppMenuManagerInterface14appMenuCreatedEPNS_16AppMenuInterfaceE
libKWaylandServer.so.5:_ZN14KWaylandServer23AppMenuManagerInterface17appMenuForSurfaceEPNS_16SurfaceInterfaceE
libKWaylandServer.so.5:_ZN14KWaylandServer23AppMenuManagerInterfaceC1EPNS_7DisplayEP7QObject
libKWaylandServer.so.5:_ZN14KWaylandServer23AppMenuManagerInterfaceC2EPNS_7DisplayEP7QObject
libKWaylandServer.so.5:_ZN14KWaylandServer23AppMenuManagerInterfaceD0Ev
libKWaylandServer.so.5:_ZN14KWaylandServer23AppMenuManagerInterfaceD1Ev
libKWaylandServer.so.5:_ZN14KWaylandServer23AppMenuManagerInterfaceD2Ev
libKWaylandServer.so.5:_ZN14KWaylandServer23LayerSurfaceV1Interface10sendClosedEv
libKWaylandServer.so.5:_ZN14KWaylandServer23LayerSurfaceV1Interface11qt_metacallEN11QMetaObject4CallEiPPv
libKWaylandServer.so.5:_ZN14KWaylandServer23LayerSurfaceV1Interface11qt_metacastEPKc
libKWaylandServer.so.5:_ZN14KWaylandServer23LayerSurfaceV1Interface12layerChangedEv
libKWaylandServer.so.5:_ZN14KWaylandServer23LayerSurfaceV1Interface13anchorChangedEv
libKWaylandServer.so.5:_ZN14KWaylandServer23LayerSurfaceV1Interface13sendConfigureERK5QSize
libKWaylandServer.so.5:_ZN14KWaylandServer23LayerSurfaceV1Interface14marginsChangedEv
libKWaylandServer.so.5:_ZN14KWaylandServer23LayerSurfaceV1Interface18aboutToBeDestroyedEv
libKWaylandServer.so.5:_ZN14KWaylandServer23LayerSurfaceV1Interface18desiredSizeChangedEv
libKWaylandServer.so.5:_ZN14KWaylandServer23LayerSurfaceV1Interface19acceptsFocusChangedEv
libKWaylandServer.so.5:_ZN14KWaylandServer23LayerSurfaceV1Interface20exclusiveZoneChangedEv
libKWaylandServer.so.5:_ZN14KWaylandServer23LayerSurfaceV1Interface21configureAcknowledgedEj
libKWaylandServer.so.5:_ZN14KWaylandServer23LayerSurfaceV1InterfaceC1EPNS_21LayerShellV1InterfaceEPNS_16SurfaceInterfaceEPNS_15OutputInterfaceENS0_5LayerERK7QStringP11wl_resource
libKWaylandServer.so.5:_ZN14KWaylandServer23LayerSurfaceV1InterfaceC2EPNS_21LayerShellV1InterfaceEPNS_16SurfaceInterfaceEPNS_15OutputInterfaceENS0_5LayerERK7QStringP11wl_resource
libKWaylandServer.so.5:_ZN14KWaylandServer23LayerSurfaceV1InterfaceD0Ev
libKWaylandServer.so.5:_ZN14KWaylandServer23LayerSurfaceV1InterfaceD1Ev
libKWaylandServer.so.5:_ZN14KWaylandServer23LayerSurfaceV1InterfaceD2Ev
libKWaylandServer.so.5:_ZN14KWaylandServer24ConfinedPointerInterface11qt_metacallEN11QMetaObject4CallEiPPv
libKWaylandServer.so.5:_ZN14KWaylandServer24ConfinedPointerInterface11qt_metacastEPKc
libKWaylandServer.so.5:_ZN14KWaylandServer24ConfinedPointerInterface11setConfinedEb
libKWaylandServer.so.5:_ZN14KWaylandServer24ConfinedPointerInterface13regionChangedEv
libKWaylandServer.so.5:_ZN14KWaylandServer24ConfinedPointerInterface15confinedChangedEv
libKWaylandServer.so.5:_ZN14KWaylandServer24ConfinedPointerInterface7Private6commitEv
libKWaylandServer.so.5:_ZN14KWaylandServer24ConfinedPointerInterface7PrivateC1ENS_34PointerConstraintsInterfaceVersionEPS0_PNS_6GlobalEP11wl_resourcePK12wl_interfacePKv
libKWaylandServer.so.5:_ZN14KWaylandServer24ConfinedPointerInterface7PrivateC2ENS_34PointerConstraintsInterfaceVersionEPS0_PNS_6GlobalEP11wl_resourcePK12wl_interfacePKv
libKWaylandServer.so.5:_ZN14KWaylandServer24ConfinedPointerInterface7PrivateD0Ev
libKWaylandServer.so.5:_ZN14KWaylandServer24ConfinedPointerInterface7PrivateD1Ev
libKWaylandServer.so.5:_ZN14KWaylandServer24ConfinedPointerInterface7PrivateD2Ev
libKWaylandServer.so.5:_ZN14KWaylandServer24ConfinedPointerInterfaceC1EPNS0_7PrivateEP7QObject
libKWaylandServer.so.5:_ZN14KWaylandServer24ConfinedPointerInterfaceC2EPNS0_7PrivateEP7QObject
libKWaylandServer.so.5:_ZN14KWaylandServer24ConfinedPointerInterfaceD0Ev
libKWaylandServer.so.5:_ZN14KWaylandServer24ConfinedPointerInterfaceD1Ev
libKWaylandServer.so.5:_ZN14KWaylandServer24ConfinedPointerInterfaceD2Ev
libKWaylandServer.so.5:_ZN14KWaylandServer24ContrastManagerInterface11qt_metacallEN11QMetaObject4CallEiPPv
libKWaylandServer.so.5:_ZN14KWaylandServer24ContrastManagerInterface11qt_metacastEPKc
libKWaylandServer.so.5:_ZN14KWaylandServer24ContrastManagerInterfaceC1EPNS_7DisplayEP7QObject
libKWaylandServer.so.5:_ZN14KWaylandServer24ContrastManagerInterfaceC2EPNS_7DisplayEP7QObject
libKWaylandServer.so.5:_ZN14KWaylandServer24ContrastManagerInterfaceD0Ev
libKWaylandServer.so.5:_ZN14KWaylandServer24ContrastManagerInterfaceD1Ev
libKWaylandServer.so.5:_ZN14KWaylandServer24ContrastManagerInterfaceD2Ev
libKWaylandServer.so.5:_ZN14KWaylandServer24PointerGesturesInterface11qt_metacallEN11QMetaObject4CallEiPPv
libKWaylandServer.so.5:_ZN14KWaylandServer24PointerGesturesInterface11qt_metacastEPKc
libKWaylandServer.so.5:_ZN14KWaylandServer24PointerGesturesInterface7PrivateC1ENS_31PointerGesturesInterfaceVersionEPS0_PNS_7DisplayEPK12wl_interfacej
libKWaylandServer.so.5:_ZN14KWaylandServer24PointerGesturesInterface7PrivateC2ENS_31PointerGesturesInterfaceVersionEPS0_PNS_7DisplayEPK12wl_interfacej
libKWaylandServer.so.5:_ZN14KWaylandServer24PointerGesturesInterfaceC1EPNS0_7PrivateEP7QObject
libKWaylandServer.so.5:_ZN14KWaylandServer24PointerGesturesInterfaceC2EPNS0_7PrivateEP7QObject
libKWaylandServer.so.5:_ZN14KWaylandServer24PointerGesturesInterfaceD0Ev
libKWaylandServer.so.5:_ZN14KWaylandServer24PointerGesturesInterfaceD1Ev
libKWaylandServer.so.5:_ZN14KWaylandServer24PointerGesturesInterfaceD2Ev
libKWaylandServer.so.5:_ZN14KWaylandServer25OutputManagementInterface11qt_metacallEN11QMetaObject4CallEiPPv
libKWaylandServer.so.5:_ZN14KWaylandServer25OutputManagementInterface11qt_metacastEPKc
libKWaylandServer.so.5:_ZN14KWaylandServer25OutputManagementInterface28configurationChangeRequestedEPNS_28OutputConfigurationInterfaceE
libKWaylandServer.so.5:_ZN14KWaylandServer25OutputManagementInterface7Private19createConfigurationEP9wl_clientP11wl_resourcej
libKWaylandServer.so.5:_ZN14KWaylandServer25OutputManagementInterface7Private27createConfigurationCallbackEP9wl_clientP11wl_resourcej
libKWaylandServer.so.5:_ZN14KWaylandServer25OutputManagementInterface7Private4bindEP9wl_clientjj
libKWaylandServer.so.5:_ZN14KWaylandServer25OutputManagementInterface7Private6unbindEP11wl_resource
libKWaylandServer.so.5:_ZN14KWaylandServer25OutputManagementInterface7PrivateC1EPS0_PNS_7DisplayE
libKWaylandServer.so.5:_ZN14KWaylandServer25OutputManagementInterface7PrivateC2EPS0_PNS_7DisplayE
libKWaylandServer.so.5:_ZN14KWaylandServer25OutputManagementInterfaceC1EPNS_7DisplayEP7QObject
libKWaylandServer.so.5:_ZN14KWaylandServer25OutputManagementInterfaceC2EPNS_7DisplayEP7QObject
libKWaylandServer.so.5:_ZN14KWaylandServer25OutputManagementInterfaceD0Ev
libKWaylandServer.so.5:_ZN14KWaylandServer25OutputManagementInterfaceD1Ev
libKWaylandServer.so.5:_ZN14KWaylandServer25OutputManagementInterfaceD2Ev
libKWaylandServer.so.5:_ZN14KWaylandServer25TextInputManagerInterface11qt_metacallEN11QMetaObject4CallEiPPv
libKWaylandServer.so.5:_ZN14KWaylandServer25TextInputManagerInterface11qt_metacastEPKc
libKWaylandServer.so.5:_ZN14KWaylandServer25TextInputManagerInterface7PrivateC1ENS_25TextInputInterfaceVersionEPS0_PNS_7DisplayEPK12wl_interfacej
libKWaylandServer.so.5:_ZN14KWaylandServer25TextInputManagerInterface7PrivateC2ENS_25TextInputInterfaceVersionEPS0_PNS_7DisplayEPK12wl_interfacej
libKWaylandServer.so.5:_ZN14KWaylandServer25TextInputManagerInterfaceC1EPNS0_7PrivateEP7QObject
libKWaylandServer.so.5:_ZN14KWaylandServer25TextInputManagerInterfaceC2EPNS0_7PrivateEP7QObject
libKWaylandServer.so.5:_ZN14KWaylandServer25TextInputManagerInterfaceD0Ev
libKWaylandServer.so.5:_ZN14KWaylandServer25TextInputManagerInterfaceD1Ev
libKWaylandServer.so.5:_ZN14KWaylandServer25TextInputManagerInterfaceD2Ev
libKWaylandServer.so.5:_ZN14KWaylandServer26DataDeviceManagerInterface11qt_metacallEN11QMetaObject4CallEiPPv
libKWaylandServer.so.5:_ZN14KWaylandServer26DataDeviceManagerInterface11qt_metacastEPKc
libKWaylandServer.so.5:_ZN14KWaylandServer26DataDeviceManagerInterface17dataDeviceCreatedEPNS_19DataDeviceInterfaceE
libKWaylandServer.so.5:_ZN14KWaylandServer26DataDeviceManagerInterface17dataSourceCreatedEPNS_19DataSourceInterfaceE
libKWaylandServer.so.5:_ZN14KWaylandServer26DataDeviceManagerInterface7Private13getDataDeviceEP9wl_clientP11wl_resourcejS5_
libKWaylandServer.so.5:_ZN14KWaylandServer26DataDeviceManagerInterface7Private16createDataSourceEP9wl_clientP11wl_resourcej
libKWaylandServer.so.5:_ZN14KWaylandServer26DataDeviceManagerInterface7Private21getDataDeviceCallbackEP9wl_clientP11wl_resourcejS5_
libKWaylandServer.so.5:_ZN14KWaylandServer26DataDeviceManagerInterface7Private24createDataSourceCallbackEP9wl_clientP11wl_resourcej
libKWaylandServer.so.5:_ZN14KWaylandServer26DataDeviceManagerInterface7Private4bindEP9wl_clientjj
libKWaylandServer.so.5:_ZN14KWaylandServer26DataDeviceManagerInterface7Private6unbindEP11wl_resource
libKWaylandServer.so.5:_ZN14KWaylandServer26DataDeviceManagerInterface7PrivateC1EPS0_PNS_7DisplayE
libKWaylandServer.so.5:_ZN14KWaylandServer26DataDeviceManagerInterface7PrivateC2EPS0_PNS_7DisplayE
libKWaylandServer.so.5:_ZN14KWaylandServer26DataDeviceManagerInterfaceC1EPNS_7DisplayEP7QObject
libKWaylandServer.so.5:_ZN14KWaylandServer26DataDeviceManagerInterfaceC2EPNS_7DisplayEP7QObject
libKWaylandServer.so.5:_ZN14KWaylandServer26DataDeviceManagerInterfaceD0Ev
libKWaylandServer.so.5:_ZN14KWaylandServer26DataDeviceManagerInterfaceD1Ev
libKWaylandServer.so.5:_ZN14KWaylandServer26DataDeviceManagerInterfaceD2Ev
libKWaylandServer.so.5:_ZN14KWaylandServer27DataControlOfferV1Interface11qt_metacallEN11QMetaObject4CallEiPPv
libKWaylandServer.so.5:_ZN14KWaylandServer27DataControlOfferV1Interface11qt_metacastEPKc
libKWaylandServer.so.5:_ZN14KWaylandServer27DataControlOfferV1Interface13sendAllOffersEv
libKWaylandServer.so.5:_ZN14KWaylandServer27DataControlOfferV1InterfaceC1EPNS_18AbstractDataSourceEP11wl_resource
libKWaylandServer.so.5:_ZN14KWaylandServer27DataControlOfferV1InterfaceC2EPNS_18AbstractDataSourceEP11wl_resource
libKWaylandServer.so.5:_ZN14KWaylandServer27DataControlOfferV1InterfaceD0Ev
libKWaylandServer.so.5:_ZN14KWaylandServer27DataControlOfferV1InterfaceD1Ev
libKWaylandServer.so.5:_ZN14KWaylandServer27DataControlOfferV1InterfaceD2Ev
libKWaylandServer.so.5:_ZN14KWaylandServer27LinuxDmabufUnstableV1BufferC1EjRK5QSize
libKWaylandServer.so.5:_ZN14KWaylandServer27LinuxDmabufUnstableV1BufferC2EjRK5QSize
libKWaylandServer.so.5:_ZN14KWaylandServer27LinuxDmabufUnstableV1BufferD0Ev
libKWaylandServer.so.5:_ZN14KWaylandServer27LinuxDmabufUnstableV1BufferD1Ev
libKWaylandServer.so.5:_ZN14KWaylandServer27LinuxDmabufUnstableV1BufferD2Ev
libKWaylandServer.so.5:_ZN14KWaylandServer27PlasmaShellSurfaceInterface11qt_metacallEN11QMetaObject4CallEiPPv
libKWaylandServer.so.5:_ZN14KWaylandServer27PlasmaShellSurfaceInterface11qt_metacastEPKc
libKWaylandServer.so.5:_ZN14KWaylandServer27PlasmaShellSurfaceInterface11roleChangedEv
libKWaylandServer.so.5:_ZN14KWaylandServer27PlasmaShellSurfaceInterface15positionChangedEv
libKWaylandServer.so.5:_ZN14KWaylandServer27PlasmaShellSurfaceInterface18skipTaskbarChangedEv
libKWaylandServer.so.5:_ZN14KWaylandServer27PlasmaShellSurfaceInterface19hideAutoHidingPanelEv
libKWaylandServer.so.5:_ZN14KWaylandServer27PlasmaShellSurfaceInterface19showAutoHidingPanelEv
libKWaylandServer.so.5:_ZN14KWaylandServer27PlasmaShellSurfaceInterface19skipSwitcherChangedEv
libKWaylandServer.so.5:_ZN14KWaylandServer27PlasmaShellSurfaceInterface20panelBehaviorChangedEv
libKWaylandServer.so.5:_ZN14KWaylandServer27PlasmaShellSurfaceInterface22panelTakesFocusChangedEv
libKWaylandServer.so.5:_ZN14KWaylandServer27PlasmaShellSurfaceInterface26panelAutoHideHideRequestedEv
libKWaylandServer.so.5:_ZN14KWaylandServer27PlasmaShellSurfaceInterface26panelAutoHideShowRequestedEv
libKWaylandServer.so.5:_ZN14KWaylandServer27PlasmaShellSurfaceInterface3getEP11wl_resource
libKWaylandServer.so.5:_ZN14KWaylandServer27PlasmaShellSurfaceInterface7Private11setPositionERK6QPoint
libKWaylandServer.so.5:_ZN14KWaylandServer27PlasmaShellSurfaceInterface7Private15setRoleCallbackEP9wl_clientP11wl_resourcej
libKWaylandServer.so.5:_ZN14KWaylandServer27PlasmaShellSurfaceInterface7Private16setPanelBehaviorE37org_kde_plasma_surface_panel_behavior
libKWaylandServer.so.5:_ZN14KWaylandServer27PlasmaShellSurfaceInterface7Private17setOutputCallbackEP9wl_clientP11wl_resourceS5_
libKWaylandServer.so.5:_ZN14KWaylandServer27PlasmaShellSurfaceInterface7Private19setPositionCallbackEP9wl_clientP11wl_resourceii
libKWaylandServer.so.5:_ZN14KWaylandServer27PlasmaShellSurfaceInterface7Private22setSkipTaskbarCallbackEP9wl_clientP11wl_resourcej
libKWaylandServer.so.5:_ZN14KWaylandServer27PlasmaShellSurfaceInterface7Private23panelTakesFocusCallbackEP9wl_clientP11wl_resourcej
libKWaylandServer.so.5:_ZN14KWaylandServer27PlasmaShellSurfaceInterface7Private23setSkipSwitcherCallbackEP9wl_clientP11wl_resourcej
libKWaylandServer.so.5:_ZN14KWaylandServer27PlasmaShellSurfaceInterface7Private24setPanelBehaviorCallbackEP9wl_clientP11wl_resourcej
libKWaylandServer.so.5:_ZN14KWaylandServer27PlasmaShellSurfaceInterface7Private25panelAutoHideHideCallbackEP9wl_clientP11wl_resource
libKWaylandServer.so.5:_ZN14KWaylandServer27PlasmaShellSurfaceInterface7Private25panelAutoHideShowCallbackEP9wl_clientP11wl_resource
libKWaylandServer.so.5:_ZN14KWaylandServer27PlasmaShellSurfaceInterface7Private7setRoleEj
libKWaylandServer.so.5:_ZN14KWaylandServer27PlasmaShellSurfaceInterface7PrivateC1EPS0_PNS_20PlasmaShellInterfaceEPNS_16SurfaceInterfaceEP11wl_resource
libKWaylandServer.so.5:_ZN14KWaylandServer27PlasmaShellSurfaceInterface7PrivateC2EPS0_PNS_20PlasmaShellInterfaceEPNS_16SurfaceInterfaceEP11wl_resource
libKWaylandServer.so.5:_ZN14KWaylandServer27PlasmaShellSurfaceInterfaceC1EPNS_20PlasmaShellInterfaceEPNS_16SurfaceInterfaceEP11wl_resource
libKWaylandServer.so.5:_ZN14KWaylandServer27PlasmaShellSurfaceInterfaceC2EPNS_20PlasmaShellInterfaceEPNS_16SurfaceInterfaceEP11wl_resource
libKWaylandServer.so.5:_ZN14KWaylandServer27PlasmaShellSurfaceInterfaceD0Ev
libKWaylandServer.so.5:_ZN14KWaylandServer27PlasmaShellSurfaceInterfaceD1Ev
libKWaylandServer.so.5:_ZN14KWaylandServer27PlasmaShellSurfaceInterfaceD2Ev
libKWaylandServer.so.5:_ZN14KWaylandServer27PointerConstraintsInterface11qt_metacallEN11QMetaObject4CallEiPPv
libKWaylandServer.so.5:_ZN14KWaylandServer27PointerConstraintsInterface11qt_metacastEPKc
libKWaylandServer.so.5:_ZN14KWaylandServer27PointerConstraintsInterface7PrivateC1ENS_34PointerConstraintsInterfaceVersionEPS0_PNS_7DisplayEPK12wl_interfacej
libKWaylandServer.so.5:_ZN14KWaylandServer27PointerConstraintsInterface7PrivateC2ENS_34PointerConstraintsInterfaceVersionEPS0_PNS_7DisplayEPK12wl_interfacej
libKWaylandServer.so.5:_ZN14KWaylandServer27PointerConstraintsInterfaceC1EPNS0_7PrivateEP7QObject
libKWaylandServer.so.5:_ZN14KWaylandServer27PointerConstraintsInterfaceC2EPNS0_7PrivateEP7QObject
libKWaylandServer.so.5:_ZN14KWaylandServer27PointerConstraintsInterfaceD0Ev
libKWaylandServer.so.5:_ZN14KWaylandServer27PointerConstraintsInterfaceD1Ev
libKWaylandServer.so.5:_ZN14KWaylandServer27PointerConstraintsInterfaceD2Ev
libKWaylandServer.so.5:_ZN14KWaylandServer27ScreencastStreamV1Interface10sendClosedEv
libKWaylandServer.so.5:_ZN14KWaylandServer27ScreencastStreamV1Interface10sendFailedERK7QString
libKWaylandServer.so.5:_ZN14KWaylandServer27ScreencastStreamV1Interface11qt_metacallEN11QMetaObject4CallEiPPv
libKWaylandServer.so.5:_ZN14KWaylandServer27ScreencastStreamV1Interface11qt_metacastEPKc
libKWaylandServer.so.5:_ZN14KWaylandServer27ScreencastStreamV1Interface11sendCreatedEj
libKWaylandServer.so.5:_ZN14KWaylandServer27ScreencastStreamV1Interface8finishedEv
libKWaylandServer.so.5:_ZN14KWaylandServer27ScreencastStreamV1InterfaceC1EP7QObject
libKWaylandServer.so.5:_ZN14KWaylandServer27ScreencastStreamV1InterfaceC2EP7QObject
libKWaylandServer.so.5:_ZN14KWaylandServer27ScreencastStreamV1InterfaceD0Ev
libKWaylandServer.so.5:_ZN14KWaylandServer27ScreencastStreamV1InterfaceD1Ev
libKWaylandServer.so.5:_ZN14KWaylandServer27ScreencastStreamV1InterfaceD2Ev
libKWaylandServer.so.5:_ZN14KWaylandServer27XdgOutputManagerV1Interface11qt_metacallEN11QMetaObject4CallEiPPv
libKWaylandServer.so.5:_ZN14KWaylandServer27XdgOutputManagerV1Interface11qt_metacastEPKc
libKWaylandServer.so.5:_ZN14KWaylandServer27XdgOutputManagerV1Interface15createXdgOutputEPNS_15OutputInterfaceEP7QObject
libKWaylandServer.so.5:_ZN14KWaylandServer27XdgOutputManagerV1InterfaceC1EPNS_7DisplayEP7QObject
libKWaylandServer.so.5:_ZN14KWaylandServer27XdgOutputManagerV1InterfaceC2EPNS_7DisplayEP7QObject
libKWaylandServer.so.5:_ZN14KWaylandServer27XdgOutputManagerV1InterfaceD0Ev
libKWaylandServer.so.5:_ZN14KWaylandServer27XdgOutputManagerV1InterfaceD1Ev
libKWaylandServer.so.5:_ZN14KWaylandServer27XdgOutputManagerV1InterfaceD2Ev
libKWaylandServer.so.5:_ZN14KWaylandServer28DataControlDeviceV1Interface11qt_metacallEN11QMetaObject4CallEiPPv
libKWaylandServer.so.5:_ZN14KWaylandServer28DataControlDeviceV1Interface11qt_metacastEPKc
libKWaylandServer.so.5:_ZN14KWaylandServer28DataControlDeviceV1Interface13sendSelectionEPNS_18AbstractDataSourceE
libKWaylandServer.so.5:_ZN14KWaylandServer28DataControlDeviceV1Interface16selectionChangedEPNS_28DataControlSourceV1InterfaceE
libKWaylandServer.so.5:_ZN14KWaylandServer28DataControlDeviceV1Interface16selectionClearedEv
libKWaylandServer.so.5:_ZN14KWaylandServer28DataControlDeviceV1Interface18sendClearSelectionEv
libKWaylandServer.so.5:_ZN14KWaylandServer28DataControlDeviceV1InterfaceC1EPNS_13SeatInterfaceEP11wl_resource
libKWaylandServer.so.5:_ZN14KWaylandServer28DataControlDeviceV1InterfaceC2EPNS_13SeatInterfaceEP11wl_resource
libKWaylandServer.so.5:_ZN14KWaylandServer28DataControlDeviceV1InterfaceD0Ev
libKWaylandServer.so.5:_ZN14KWaylandServer28DataControlDeviceV1InterfaceD1Ev
libKWaylandServer.so.5:_ZN14KWaylandServer28DataControlDeviceV1InterfaceD2Ev
libKWaylandServer.so.5:_ZN14KWaylandServer28DataControlSourceV1Interface11qt_metacallEN11QMetaObject4CallEiPPv
libKWaylandServer.so.5:_ZN14KWaylandServer28DataControlSourceV1Interface11qt_metacastEPKc
libKWaylandServer.so.5:_ZN14KWaylandServer28DataControlSourceV1Interface11requestDataERK7QStringi
libKWaylandServer.so.5:_ZN14KWaylandServer28DataControlSourceV1Interface3getEP11wl_resource
libKWaylandServer.so.5:_ZN14KWaylandServer28DataControlSourceV1Interface6cancelEv
libKWaylandServer.so.5:_ZN14KWaylandServer28DataControlSourceV1Interface6clientEv
libKWaylandServer.so.5:_ZN14KWaylandServer28DataControlSourceV1InterfaceC1EPNS_35DataControlDeviceManagerV1InterfaceEP11wl_resource
libKWaylandServer.so.5:_ZN14KWaylandServer28DataControlSourceV1InterfaceC2EPNS_35DataControlDeviceManagerV1InterfaceEP11wl_resource
libKWaylandServer.so.5:_ZN14KWaylandServer28DataControlSourceV1InterfaceD0Ev
libKWaylandServer.so.5:_ZN14KWaylandServer28DataControlSourceV1InterfaceD1Ev
libKWaylandServer.so.5:_ZN14KWaylandServer28DataControlSourceV1InterfaceD2Ev
libKWaylandServer.so.5:_ZN14KWaylandServer28EglStreamControllerInterface11qt_metacallEN11QMetaObject4CallEiPPv
libKWaylandServer.so.5:_ZN14KWaylandServer28EglStreamControllerInterface11qt_metacastEPKc
libKWaylandServer.so.5:_ZN14KWaylandServer28EglStreamControllerInterface22streamConsumerAttachedEPNS_16SurfaceInterfaceEPvP8wl_array
libKWaylandServer.so.5:_ZN14KWaylandServer28EglStreamControllerInterfaceC1EPNS_7DisplayEP7QObject
libKWaylandServer.so.5:_ZN14KWaylandServer28EglStreamControllerInterfaceC2EPNS_7DisplayEP7QObject
libKWaylandServer.so.5:_ZN14KWaylandServer28EglStreamControllerInterfaceD0Ev
libKWaylandServer.so.5:_ZN14KWaylandServer28EglStreamControllerInterfaceD1Ev
libKWaylandServer.so.5:_ZN14KWaylandServer28EglStreamControllerInterfaceD2Ev
libKWaylandServer.so.5:_ZN14KWaylandServer28InputPanelSurfaceV1Interface11qt_metacallEN11QMetaObject4CallEiPPv
libKWaylandServer.so.5:_ZN14KWaylandServer28InputPanelSurfaceV1Interface11qt_metacastEPKc
libKWaylandServer.so.5:_ZN14KWaylandServer28InputPanelSurfaceV1Interface12overlayPanelEv
libKWaylandServer.so.5:_ZN14KWaylandServer28InputPanelSurfaceV1Interface8topLevelEPNS_15OutputInterfaceENS0_8PositionE
libKWaylandServer.so.5:_ZN14KWaylandServer28InputPanelSurfaceV1InterfaceC1EPNS_16SurfaceInterfaceEjP7QObject
libKWaylandServer.so.5:_ZN14KWaylandServer28InputPanelSurfaceV1InterfaceC2EPNS_16SurfaceInterfaceEjP7QObject
libKWaylandServer.so.5:_ZN14KWaylandServer28InputPanelSurfaceV1InterfaceD0Ev
libKWaylandServer.so.5:_ZN14KWaylandServer28InputPanelSurfaceV1InterfaceD1Ev
libKWaylandServer.so.5:_ZN14KWaylandServer28InputPanelSurfaceV1InterfaceD2Ev
libKWaylandServer.so.5:_ZN14KWaylandServer28OutputConfigurationInterface10setAppliedEv
libKWaylandServer.so.5:_ZN14KWaylandServer28OutputConfigurationInterface11qt_metacallEN11QMetaObject4CallEiPPv
libKWaylandServer.so.5:_ZN14KWaylandServer28OutputConfigurationInterface11qt_metacastEPKc
libKWaylandServer.so.5:_ZN14KWaylandServer28OutputConfigurationInterface7Private10sendFailedEv
libKWaylandServer.so.5:_ZN14KWaylandServer28OutputConfigurationInterface7Private11sendAppliedEv
libKWaylandServer.so.5:_ZN14KWaylandServer28OutputConfigurationInterface7Private12modeCallbackEP9wl_clientP11wl_resourceS5_i
libKWaylandServer.so.5:_ZN14KWaylandServer28OutputConfigurationInterface7Private13applyCallbackEP9wl_clientP11wl_resource
libKWaylandServer.so.5:_ZN14KWaylandServer28OutputConfigurationInterface7Private13scaleCallbackEP9wl_clientP11wl_resourceS5_i
libKWaylandServer.so.5:_ZN14KWaylandServer28OutputConfigurationInterface7Private14enableCallbackEP9wl_clientP11wl_resourceS5_i
libKWaylandServer.so.5:_ZN14KWaylandServer28OutputConfigurationInterface7Private14pendingChangesEPNS_21OutputDeviceInterfaceE
libKWaylandServer.so.5:_ZN14KWaylandServer28OutputConfigurationInterface7Private14scaleFCallbackEP9wl_clientP11wl_resourceS5_i
libKWaylandServer.so.5:_ZN14KWaylandServer28OutputConfigurationInterface7Private16positionCallbackEP9wl_clientP11wl_resourceS5_ii
libKWaylandServer.so.5:_ZN14KWaylandServer28OutputConfigurationInterface7Private17transformCallbackEP9wl_clientP11wl_resourceS5_i
libKWaylandServer.so.5:_ZN14KWaylandServer28OutputConfigurationInterface7Private19clearPendingChangesEv
libKWaylandServer.so.5:_ZN14KWaylandServer28OutputConfigurationInterface7Private19colorcurvesCallbackEP9wl_clientP11wl_resourceS5_P8wl_arrayS7_S7_
libKWaylandServer.so.5:_ZN14KWaylandServer28OutputConfigurationInterface7PrivateC1EPS0_PNS_25OutputManagementInterfaceEP11wl_resource
libKWaylandServer.so.5:_ZN14KWaylandServer28OutputConfigurationInterface7PrivateC2EPS0_PNS_25OutputManagementInterfaceEP11wl_resource
libKWaylandServer.so.5:_ZN14KWaylandServer28OutputConfigurationInterface7PrivateD0Ev
libKWaylandServer.so.5:_ZN14KWaylandServer28OutputConfigurationInterface7PrivateD1Ev
libKWaylandServer.so.5:_ZN14KWaylandServer28OutputConfigurationInterface7PrivateD2Ev
libKWaylandServer.so.5:_ZN14KWaylandServer28OutputConfigurationInterface9setFailedEv
libKWaylandServer.so.5:_ZN14KWaylandServer28OutputConfigurationInterfaceC1EPNS_25OutputManagementInterfaceEP11wl_resource
libKWaylandServer.so.5:_ZN14KWaylandServer28OutputConfigurationInterfaceC2EPNS_25OutputManagementInterfaceEP11wl_resource
libKWaylandServer.so.5:_ZN14KWaylandServer28OutputConfigurationInterfaceD0Ev
libKWaylandServer.so.5:_ZN14KWaylandServer28OutputConfigurationInterfaceD1Ev
libKWaylandServer.so.5:_ZN14KWaylandServer28OutputConfigurationInterfaceD2Ev
libKWaylandServer.so.5:_ZN14KWaylandServer29IdleInhibitManagerV1Interface11qt_metacallEN11QMetaObject4CallEiPPv
libKWaylandServer.so.5:_ZN14KWaylandServer29IdleInhibitManagerV1Interface11qt_metacastEPKc
libKWaylandServer.so.5:_ZN14KWaylandServer29IdleInhibitManagerV1InterfaceC1EPNS_7DisplayEP7QObject
libKWaylandServer.so.5:_ZN14KWaylandServer29IdleInhibitManagerV1InterfaceC2EPNS_7DisplayEP7QObject
libKWaylandServer.so.5:_ZN14KWaylandServer29IdleInhibitManagerV1InterfaceD0Ev
libKWaylandServer.so.5:_ZN14KWaylandServer29IdleInhibitManagerV1InterfaceD1Ev
libKWaylandServer.so.5:_ZN14KWaylandServer29IdleInhibitManagerV1InterfaceD2Ev
libKWaylandServer.so.5:_ZN14KWaylandServer29InputMethodContextV1Interface11qt_metacallEN11QMetaObject4CallEiPPv
libKWaylandServer.so.5:_ZN14KWaylandServer29InputMethodContextV1Interface11qt_metacastEPKc
libKWaylandServer.so.5:_ZN14KWaylandServer29InputMethodContextV1Interface12commitStringEjRK7QString
libKWaylandServer.so.5:_ZN14KWaylandServer29InputMethodContextV1Interface12grabKeyboardEj
libKWaylandServer.so.5:_ZN14KWaylandServer29InputMethodContextV1Interface13preeditCursorEi
libKWaylandServer.so.5:_ZN14KWaylandServer29InputMethodContextV1Interface13preeditStringEjRK7QStringS3_
libKWaylandServer.so.5:_ZN14KWaylandServer29InputMethodContextV1Interface13textDirectionEjN2Qt15LayoutDirectionE
libKWaylandServer.so.5:_ZN14KWaylandServer29InputMethodContextV1Interface14cursorPositionEii
libKWaylandServer.so.5:_ZN14KWaylandServer29InputMethodContextV1Interface14preeditStylingEjjj
libKWaylandServer.so.5:_ZN14KWaylandServer29InputMethodContextV1Interface15sendCommitStateEj
libKWaylandServer.so.5:_ZN14KWaylandServer29InputMethodContextV1Interface15sendContentTypeE6QFlagsINS_18TextInputInterface11ContentHintEENS2_14ContentPurposeE
libKWaylandServer.so.5:_ZN14KWaylandServer29InputMethodContextV1Interface16sendInvokeActionEjj
libKWaylandServer.so.5:_ZN14KWaylandServer29InputMethodContextV1Interface19sendSurroundingTextERK7QStringjj
libKWaylandServer.so.5:_ZN14KWaylandServer29InputMethodContextV1Interface21deleteSurroundingTextEij
libKWaylandServer.so.5:_ZN14KWaylandServer29InputMethodContextV1Interface21sendPreferredLanguageERK7QString
libKWaylandServer.so.5:_ZN14KWaylandServer29InputMethodContextV1Interface3keyEjjjb
libKWaylandServer.so.5:_ZN14KWaylandServer29InputMethodContextV1Interface6keysymEjjjb6QFlagsIN2Qt16KeyboardModifierEE
libKWaylandServer.so.5:_ZN14KWaylandServer29InputMethodContextV1Interface8languageEjRK7QString
libKWaylandServer.so.5:_ZN14KWaylandServer29InputMethodContextV1Interface9modifiersEj6QFlagsIN2Qt16KeyboardModifierEES4_S4_j
libKWaylandServer.so.5:_ZN14KWaylandServer29InputMethodContextV1Interface9sendResetEv
libKWaylandServer.so.5:_ZN14KWaylandServer29InputMethodContextV1InterfaceC1EPNS_22InputMethodV1InterfaceE
libKWaylandServer.so.5:_ZN14KWaylandServer29InputMethodContextV1InterfaceC2EPNS_22InputMethodV1InterfaceE
libKWaylandServer.so.5:_ZN14KWaylandServer29InputMethodContextV1InterfaceD0Ev
libKWaylandServer.so.5:_ZN14KWaylandServer29InputMethodContextV1InterfaceD1Ev
libKWaylandServer.so.5:_ZN14KWaylandServer29InputMethodContextV1InterfaceD2Ev
libKWaylandServer.so.5:_ZN14KWaylandServer29PlasmaVirtualDesktopInterface11qt_metacallEN11QMetaObject4CallEiPPv
libKWaylandServer.so.5:_ZN14KWaylandServer29PlasmaVirtualDesktopInterface11qt_metacastEPKc
libKWaylandServer.so.5:_ZN14KWaylandServer29PlasmaVirtualDesktopInterface17activateRequestedEv
libKWaylandServer.so.5:_ZN14KWaylandServer29PlasmaVirtualDesktopInterface7setNameERK7QString
libKWaylandServer.so.5:_ZN14KWaylandServer29PlasmaVirtualDesktopInterface8sendDoneEv
libKWaylandServer.so.5:_ZN14KWaylandServer29PlasmaVirtualDesktopInterface9setActiveEb
libKWaylandServer.so.5:_ZN14KWaylandServer29PlasmaVirtualDesktopInterfaceC1EPNS_39PlasmaVirtualDesktopManagementInterfaceE
libKWaylandServer.so.5:_ZN14KWaylandServer29PlasmaVirtualDesktopInterfaceC2EPNS_39PlasmaVirtualDesktopManagementInterfaceE
libKWaylandServer.so.5:_ZN14KWaylandServer29PlasmaVirtualDesktopInterfaceD0Ev
libKWaylandServer.so.5:_ZN14KWaylandServer29PlasmaVirtualDesktopInterfaceD1Ev
libKWaylandServer.so.5:_ZN14KWaylandServer29PlasmaVirtualDesktopInterfaceD2Ev
libKWaylandServer.so.5:_ZN14KWaylandServer29ServerSideDecorationInterface11qt_metacallEN11QMetaObject4CallEiPPv
libKWaylandServer.so.5:_ZN14KWaylandServer29ServerSideDecorationInterface11qt_metacastEPKc
libKWaylandServer.so.5:_ZN14KWaylandServer29ServerSideDecorationInterface13modeRequestedENS_36ServerSideDecorationManagerInterface4ModeE
libKWaylandServer.so.5:_ZN14KWaylandServer29ServerSideDecorationInterface3getEPNS_16SurfaceInterfaceE
libKWaylandServer.so.5:_ZN14KWaylandServer29ServerSideDecorationInterface7setModeENS_36ServerSideDecorationManagerInterface4ModeE
libKWaylandServer.so.5:_ZN14KWaylandServer29ServerSideDecorationInterfaceC1EPNS_16SurfaceInterfaceEP11wl_resource
libKWaylandServer.so.5:_ZN14KWaylandServer29ServerSideDecorationInterfaceC2EPNS_16SurfaceInterfaceEP11wl_resource
libKWaylandServer.so.5:_ZN14KWaylandServer29ServerSideDecorationInterfaceD0Ev
libKWaylandServer.so.5:_ZN14KWaylandServer29ServerSideDecorationInterfaceD1Ev
libKWaylandServer.so.5:_ZN14KWaylandServer29ServerSideDecorationInterfaceD2Ev
libKWaylandServer.so.5:_ZN14KWaylandServer30LinuxDmabufUnstableV1Interface11qt_metacallEN11QMetaObject4CallEiPPv
libKWaylandServer.so.5:_ZN14KWaylandServer30LinuxDmabufUnstableV1Interface11qt_metacastEPKc
libKWaylandServer.so.5:_ZN14KWaylandServer30LinuxDmabufUnstableV1Interface20bufferImplementationEv
libKWaylandServer.so.5:_ZN14KWaylandServer30LinuxDmabufUnstableV1Interface32setSupportedFormatsWithModifiersE5QHashIj4QSetImEE
libKWaylandServer.so.5:_ZN14KWaylandServer30LinuxDmabufUnstableV1Interface7Private12createParamsEP9wl_clientP11wl_resourcej
libKWaylandServer.so.5:_ZN14KWaylandServer30LinuxDmabufUnstableV1Interface7Private20createParamsCallbackEP9wl_clientP11wl_resourcej
libKWaylandServer.so.5:_ZN14KWaylandServer30LinuxDmabufUnstableV1Interface7Private4bindEP9wl_clientjj
libKWaylandServer.so.5:_ZN14KWaylandServer30LinuxDmabufUnstableV1Interface7Private6Params11createImmedEP9wl_clientP11wl_resourcejiijj
libKWaylandServer.so.5:_ZN14KWaylandServer30LinuxDmabufUnstableV1Interface7Private6Params3addEP9wl_clientP11wl_resourceijjjjj
libKWaylandServer.so.5:_ZN14KWaylandServer30LinuxDmabufUnstableV1Interface7Private6Params3addEijjjm
libKWaylandServer.so.5:_ZN14KWaylandServer30LinuxDmabufUnstableV1Interface7Private6Params6createEP9wl_clientP11wl_resourceiijj
libKWaylandServer.so.5:_ZN14KWaylandServer30LinuxDmabufUnstableV1Interface7Private6Params6createEP9wl_clientjRK5QSizejj
libKWaylandServer.so.5:_ZN14KWaylandServer30LinuxDmabufUnstableV1Interface7Private6Params7destroyEP9wl_clientP11wl_resource
libKWaylandServer.so.5:_ZN14KWaylandServer30LinuxDmabufUnstableV1Interface7Private6ParamsC1EPS1_P9wl_clientjj
libKWaylandServer.so.5:_ZN14KWaylandServer30LinuxDmabufUnstableV1Interface7Private6ParamsC2EPS1_P9wl_clientjj
libKWaylandServer.so.5:_ZN14KWaylandServer30LinuxDmabufUnstableV1Interface7Private6ParamsD1Ev
libKWaylandServer.so.5:_ZN14KWaylandServer30LinuxDmabufUnstableV1Interface7Private6ParamsD2Ev
libKWaylandServer.so.5:_ZN14KWaylandServer30LinuxDmabufUnstableV1Interface7PrivateC1EPS0_PNS_7DisplayE
libKWaylandServer.so.5:_ZN14KWaylandServer30LinuxDmabufUnstableV1Interface7PrivateC2EPS0_PNS_7DisplayE
libKWaylandServer.so.5:_ZN14KWaylandServer30LinuxDmabufUnstableV1Interface7PrivateD0Ev
libKWaylandServer.so.5:_ZN14KWaylandServer30LinuxDmabufUnstableV1Interface7PrivateD1Ev
libKWaylandServer.so.5:_ZN14KWaylandServer30LinuxDmabufUnstableV1Interface7PrivateD2Ev
libKWaylandServer.so.5:_ZN14KWaylandServer30LinuxDmabufUnstableV1Interface7setImplEPNS0_4ImplE
libKWaylandServer.so.5:_ZN14KWaylandServer30LinuxDmabufUnstableV1InterfaceC1EPNS_7DisplayEP7QObject
libKWaylandServer.so.5:_ZN14KWaylandServer30LinuxDmabufUnstableV1InterfaceC2EPNS_7DisplayEP7QObject
libKWaylandServer.so.5:_ZN14KWaylandServer30LinuxDmabufUnstableV1InterfaceD0Ev
libKWaylandServer.so.5:_ZN14KWaylandServer30LinuxDmabufUnstableV1InterfaceD1Ev
libKWaylandServer.so.5:_ZN14KWaylandServer30LinuxDmabufUnstableV1InterfaceD2Ev
libKWaylandServer.so.5:_ZN14KWaylandServer31PlasmaWindowManagementInterface11qt_metacallEN11QMetaObject4CallEiPPv
libKWaylandServer.so.5:_ZN14KWaylandServer31PlasmaWindowManagementInterface11qt_metacastEPKc
libKWaylandServer.so.5:_ZN14KWaylandServer31PlasmaWindowManagementInterface11unmapWindowEPNS_21PlasmaWindowInterfaceE
libKWaylandServer.so.5:_ZN14KWaylandServer31PlasmaWindowManagementInterface12createWindowEP7QObjectRK5QUuid
libKWaylandServer.so.5:_ZN14KWaylandServer31PlasmaWindowManagementInterface16setStackingOrderERK7QVectorIjE
libKWaylandServer.so.5:_ZN14KWaylandServer31PlasmaWindowManagementInterface22setShowingDesktopStateENS0_19ShowingDesktopStateE
libKWaylandServer.so.5:_ZN14KWaylandServer31PlasmaWindowManagementInterface27requestChangeShowingDesktopENS0_19ShowingDesktopStateE
libKWaylandServer.so.5:_ZN14KWaylandServer31PlasmaWindowManagementInterface42setPlasmaVirtualDesktopManagementInterfaceEPNS_39PlasmaVirtualDesktopManagementInterfaceE
libKWaylandServer.so.5:_ZN14KWaylandServer31PlasmaWindowManagementInterface7Private17getWindowCallbackEP9wl_clientP11wl_resourcejj
libKWaylandServer.so.5:_ZN14KWaylandServer31PlasmaWindowManagementInterface7Private19showDesktopCallbackEP9wl_clientP11wl_resourcej
libKWaylandServer.so.5:_ZN14KWaylandServer31PlasmaWindowManagementInterface7Private23getWindowByUuidCallbackEP9wl_clientP11wl_resourcejPKc
libKWaylandServer.so.5:_ZN14KWaylandServer31PlasmaWindowManagementInterface7Private23sendShowingDesktopStateEP11wl_resource
libKWaylandServer.so.5:_ZN14KWaylandServer31PlasmaWindowManagementInterface7Private23sendShowingDesktopStateEv
libKWaylandServer.so.5:_ZN14KWaylandServer31PlasmaWindowManagementInterface7Private24sendStackingOrderChangedEP11wl_resource
libKWaylandServer.so.5:_ZN14KWaylandServer31PlasmaWindowManagementInterface7Private24sendStackingOrderChangedEv
libKWaylandServer.so.5:_ZN14KWaylandServer31PlasmaWindowManagementInterface7Private4bindEP9wl_clientjj
libKWaylandServer.so.5:_ZN14KWaylandServer31PlasmaWindowManagementInterface7Private6unbindEP11wl_resource
libKWaylandServer.so.5:_ZN14KWaylandServer31PlasmaWindowManagementInterface7PrivateC1EPS0_PNS_7DisplayE
libKWaylandServer.so.5:_ZN14KWaylandServer31PlasmaWindowManagementInterface7PrivateC2EPS0_PNS_7DisplayE
libKWaylandServer.so.5:_ZN14KWaylandServer31PlasmaWindowManagementInterfaceC1EPNS_7DisplayEP7QObject
libKWaylandServer.so.5:_ZN14KWaylandServer31PlasmaWindowManagementInterfaceC2EPNS_7DisplayEP7QObject
libKWaylandServer.so.5:_ZN14KWaylandServer31PlasmaWindowManagementInterfaceD0Ev
libKWaylandServer.so.5:_ZN14KWaylandServer31PlasmaWindowManagementInterfaceD1Ev
libKWaylandServer.so.5:_ZN14KWaylandServer31PlasmaWindowManagementInterfaceD2Ev
libKWaylandServer.so.5:_ZN14KWaylandServer31RelativePointerManagerInterface11qt_metacallEN11QMetaObject4CallEiPPv
libKWaylandServer.so.5:_ZN14KWaylandServer31RelativePointerManagerInterface11qt_metacastEPKc
libKWaylandServer.so.5:_ZN14KWaylandServer31RelativePointerManagerInterface7PrivateC1ENS_31RelativePointerInterfaceVersionEPS0_PNS_7DisplayEPK12wl_interfacej
libKWaylandServer.so.5:_ZN14KWaylandServer31RelativePointerManagerInterface7PrivateC2ENS_31RelativePointerInterfaceVersionEPS0_PNS_7DisplayEPK12wl_interfacej
libKWaylandServer.so.5:_ZN14KWaylandServer31RelativePointerManagerInterfaceC1EPNS0_7PrivateEP7QObject
libKWaylandServer.so.5:_ZN14KWaylandServer31RelativePointerManagerInterfaceC2EPNS0_7PrivateEP7QObject
libKWaylandServer.so.5:_ZN14KWaylandServer31RelativePointerManagerInterfaceD0Ev
libKWaylandServer.so.5:_ZN14KWaylandServer31RelativePointerManagerInterfaceD1Ev
libKWaylandServer.so.5:_ZN14KWaylandServer31RelativePointerManagerInterfaceD2Ev
libKWaylandServer.so.5:_ZN14KWaylandServer31XdgDecorationManagerV1Interface11qt_metacallEN11QMetaObject4CallEiPPv
libKWaylandServer.so.5:_ZN14KWaylandServer31XdgDecorationManagerV1Interface11qt_metacastEPKc
libKWaylandServer.so.5:_ZN14KWaylandServer31XdgDecorationManagerV1Interface17decorationCreatedEPNS_32XdgToplevelDecorationV1InterfaceE
libKWaylandServer.so.5:_ZN14KWaylandServer31XdgDecorationManagerV1InterfaceC1EPNS_7DisplayEP7QObject
libKWaylandServer.so.5:_ZN14KWaylandServer31XdgDecorationManagerV1InterfaceC2EPNS_7DisplayEP7QObject
libKWaylandServer.so.5:_ZN14KWaylandServer31XdgDecorationManagerV1InterfaceD0Ev
libKWaylandServer.so.5:_ZN14KWaylandServer31XdgDecorationManagerV1InterfaceD1Ev
libKWaylandServer.so.5:_ZN14KWaylandServer31XdgDecorationManagerV1InterfaceD2Ev
libKWaylandServer.so.5:_ZN14KWaylandServer32PrimarySelectionOfferV1Interface11qt_metacallEN11QMetaObject4CallEiPPv
libKWaylandServer.so.5:_ZN14KWaylandServer32PrimarySelectionOfferV1Interface11qt_metacastEPKc
libKWaylandServer.so.5:_ZN14KWaylandServer32PrimarySelectionOfferV1Interface13sendAllOffersEv
libKWaylandServer.so.5:_ZN14KWaylandServer32PrimarySelectionOfferV1InterfaceC1EPNS_18AbstractDataSourceEP11wl_resource
libKWaylandServer.so.5:_ZN14KWaylandServer32PrimarySelectionOfferV1InterfaceC2EPNS_18AbstractDataSourceEP11wl_resource
libKWaylandServer.so.5:_ZN14KWaylandServer32PrimarySelectionOfferV1InterfaceD0Ev
libKWaylandServer.so.5:_ZN14KWaylandServer32PrimarySelectionOfferV1InterfaceD1Ev
libKWaylandServer.so.5:_ZN14KWaylandServer32PrimarySelectionOfferV1InterfaceD2Ev
libKWaylandServer.so.5:_ZN14KWaylandServer32XdgToplevelDecorationV1Interface11qt_metacallEN11QMetaObject4CallEiPPv
libKWaylandServer.so.5:_ZN14KWaylandServer32XdgToplevelDecorationV1Interface11qt_metacastEPKc
libKWaylandServer.so.5:_ZN14KWaylandServer32XdgToplevelDecorationV1Interface13sendConfigureENS0_4ModeE
libKWaylandServer.so.5:_ZN14KWaylandServer32XdgToplevelDecorationV1Interface20preferredModeChangedENS0_4ModeE
libKWaylandServer.so.5:_ZN14KWaylandServer32XdgToplevelDecorationV1Interface3getEPNS_20XdgToplevelInterfaceE
libKWaylandServer.so.5:_ZN14KWaylandServer32XdgToplevelDecorationV1InterfaceC1EPNS_20XdgToplevelInterfaceEP11wl_resource
libKWaylandServer.so.5:_ZN14KWaylandServer32XdgToplevelDecorationV1InterfaceC2EPNS_20XdgToplevelInterfaceEP11wl_resource
libKWaylandServer.so.5:_ZN14KWaylandServer32XdgToplevelDecorationV1InterfaceD0Ev
libKWaylandServer.so.5:_ZN14KWaylandServer32XdgToplevelDecorationV1InterfaceD1Ev
libKWaylandServer.so.5:_ZN14KWaylandServer32XdgToplevelDecorationV1InterfaceD2Ev
libKWaylandServer.so.5:_ZN14KWaylandServer33PrimarySelectionDeviceV1Interface11qt_metacallEN11QMetaObject4CallEiPPv
libKWaylandServer.so.5:_ZN14KWaylandServer33PrimarySelectionDeviceV1Interface11qt_metacastEPKc
libKWaylandServer.so.5:_ZN14KWaylandServer33PrimarySelectionDeviceV1Interface13sendSelectionEPNS_18AbstractDataSourceE
libKWaylandServer.so.5:_ZN14KWaylandServer33PrimarySelectionDeviceV1Interface16selectionChangedEPNS_33PrimarySelectionSourceV1InterfaceE
libKWaylandServer.so.5:_ZN14KWaylandServer33PrimarySelectionDeviceV1Interface16selectionClearedEv
libKWaylandServer.so.5:_ZN14KWaylandServer33PrimarySelectionDeviceV1Interface18sendClearSelectionEv
libKWaylandServer.so.5:_ZN14KWaylandServer33PrimarySelectionDeviceV1InterfaceC1EPNS_13SeatInterfaceEP11wl_resource
libKWaylandServer.so.5:_ZN14KWaylandServer33PrimarySelectionDeviceV1InterfaceC2EPNS_13SeatInterfaceEP11wl_resource
libKWaylandServer.so.5:_ZN14KWaylandServer33PrimarySelectionDeviceV1InterfaceD0Ev
libKWaylandServer.so.5:_ZN14KWaylandServer33PrimarySelectionDeviceV1InterfaceD1Ev
libKWaylandServer.so.5:_ZN14KWaylandServer33PrimarySelectionDeviceV1InterfaceD2Ev
libKWaylandServer.so.5:_ZN14KWaylandServer33PrimarySelectionSourceV1Interface11qt_metacallEN11QMetaObject4CallEiPPv
libKWaylandServer.so.5:_ZN14KWaylandServer33PrimarySelectionSourceV1Interface11qt_metacastEPKc
libKWaylandServer.so.5:_ZN14KWaylandServer33PrimarySelectionSourceV1Interface11requestDataERK7QStringi
libKWaylandServer.so.5:_ZN14KWaylandServer33PrimarySelectionSourceV1Interface3getEP11wl_resource
libKWaylandServer.so.5:_ZN14KWaylandServer33PrimarySelectionSourceV1Interface6cancelEv
libKWaylandServer.so.5:_ZN14KWaylandServer33PrimarySelectionSourceV1Interface6clientEv
libKWaylandServer.so.5:_ZN14KWaylandServer33PrimarySelectionSourceV1InterfaceC1EPNS_40PrimarySelectionDeviceManagerV1InterfaceEP11wl_resource
libKWaylandServer.so.5:_ZN14KWaylandServer33PrimarySelectionSourceV1InterfaceC2EPNS_40PrimarySelectionDeviceManagerV1InterfaceEP11wl_resource
libKWaylandServer.so.5:_ZN14KWaylandServer33PrimarySelectionSourceV1InterfaceD0Ev
libKWaylandServer.so.5:_ZN14KWaylandServer33PrimarySelectionSourceV1InterfaceD1Ev
libKWaylandServer.so.5:_ZN14KWaylandServer33PrimarySelectionSourceV1InterfaceD2Ev
libKWaylandServer.so.5:_ZN14KWaylandServer35DataControlDeviceManagerV1Interface11qt_metacallEN11QMetaObject4CallEiPPv
libKWaylandServer.so.5:_ZN14KWaylandServer35DataControlDeviceManagerV1Interface11qt_metacastEPKc
libKWaylandServer.so.5:_ZN14KWaylandServer35DataControlDeviceManagerV1Interface17dataDeviceCreatedEPNS_28DataControlDeviceV1InterfaceE
libKWaylandServer.so.5:_ZN14KWaylandServer35DataControlDeviceManagerV1Interface17dataSourceCreatedEPNS_28DataControlSourceV1InterfaceE
libKWaylandServer.so.5:_ZN14KWaylandServer35DataControlDeviceManagerV1InterfaceC1EPNS_7DisplayEP7QObject
libKWaylandServer.so.5:_ZN14KWaylandServer35DataControlDeviceManagerV1InterfaceC2EPNS_7DisplayEP7QObject
libKWaylandServer.so.5:_ZN14KWaylandServer35DataControlDeviceManagerV1InterfaceD0Ev
libKWaylandServer.so.5:_ZN14KWaylandServer35DataControlDeviceManagerV1InterfaceD1Ev
libKWaylandServer.so.5:_ZN14KWaylandServer35DataControlDeviceManagerV1InterfaceD2Ev
libKWaylandServer.so.5:_ZN14KWaylandServer36ServerSideDecorationManagerInterface11qt_metacallEN11QMetaObject4CallEiPPv
libKWaylandServer.so.5:_ZN14KWaylandServer36ServerSideDecorationManagerInterface11qt_metacastEPKc
libKWaylandServer.so.5:_ZN14KWaylandServer36ServerSideDecorationManagerInterface14setDefaultModeENS0_4ModeE
libKWaylandServer.so.5:_ZN14KWaylandServer36ServerSideDecorationManagerInterface17decorationCreatedEPNS_29ServerSideDecorationInterfaceE
libKWaylandServer.so.5:_ZN14KWaylandServer36ServerSideDecorationManagerInterfaceC1EPNS_7DisplayEP7QObject
libKWaylandServer.so.5:_ZN14KWaylandServer36ServerSideDecorationManagerInterfaceC2EPNS_7DisplayEP7QObject
libKWaylandServer.so.5:_ZN14KWaylandServer36ServerSideDecorationManagerInterfaceD0Ev
libKWaylandServer.so.5:_ZN14KWaylandServer36ServerSideDecorationManagerInterfaceD1Ev
libKWaylandServer.so.5:_ZN14KWaylandServer36ServerSideDecorationManagerInterfaceD2Ev
libKWaylandServer.so.5:_ZN14KWaylandServer36ServerSideDecorationPaletteInterface11qt_metacallEN11QMetaObject4CallEiPPv
libKWaylandServer.so.5:_ZN14KWaylandServer36ServerSideDecorationPaletteInterface11qt_metacastEPKc
libKWaylandServer.so.5:_ZN14KWaylandServer36ServerSideDecorationPaletteInterface14paletteChangedERK7QString
libKWaylandServer.so.5:_ZN14KWaylandServer36ServerSideDecorationPaletteInterfaceC1EPNS_16SurfaceInterfaceEP11wl_resource
libKWaylandServer.so.5:_ZN14KWaylandServer36ServerSideDecorationPaletteInterfaceC2EPNS_16SurfaceInterfaceEP11wl_resource
libKWaylandServer.so.5:_ZN14KWaylandServer36ServerSideDecorationPaletteInterfaceD0Ev
libKWaylandServer.so.5:_ZN14KWaylandServer36ServerSideDecorationPaletteInterfaceD1Ev
libKWaylandServer.so.5:_ZN14KWaylandServer36ServerSideDecorationPaletteInterfaceD2Ev
libKWaylandServer.so.5:_ZN14KWaylandServer37KeyboardShortcutsInhibitorV1Interface11qt_metacallEN11QMetaObject4CallEiPPv
libKWaylandServer.so.5:_ZN14KWaylandServer37KeyboardShortcutsInhibitorV1Interface11qt_metacastEPKc
libKWaylandServer.so.5:_ZN14KWaylandServer37KeyboardShortcutsInhibitorV1Interface9setActiveEb
libKWaylandServer.so.5:_ZN14KWaylandServer37KeyboardShortcutsInhibitorV1InterfaceC1EPNS_16SurfaceInterfaceEPNS_13SeatInterfaceEPNS_42KeyboardShortcutsInhibitManagerV1InterfaceEP11wl_resource
libKWaylandServer.so.5:_ZN14KWaylandServer37KeyboardShortcutsInhibitorV1InterfaceC2EPNS_16SurfaceInterfaceEPNS_13SeatInterfaceEPNS_42KeyboardShortcutsInhibitManagerV1InterfaceEP11wl_resource
libKWaylandServer.so.5:_ZN14KWaylandServer37KeyboardShortcutsInhibitorV1InterfaceD0Ev
libKWaylandServer.so.5:_ZN14KWaylandServer37KeyboardShortcutsInhibitorV1InterfaceD1Ev
libKWaylandServer.so.5:_ZN14KWaylandServer37KeyboardShortcutsInhibitorV1InterfaceD2Ev
libKWaylandServer.so.5:_ZN14KWaylandServer39PlasmaVirtualDesktopManagementInterface11qt_metacallEN11QMetaObject4CallEiPPv
libKWaylandServer.so.5:_ZN14KWaylandServer39PlasmaVirtualDesktopManagementInterface11qt_metacastEPKc
libKWaylandServer.so.5:_ZN14KWaylandServer39PlasmaVirtualDesktopManagementInterface13createDesktopERK7QStringj
libKWaylandServer.so.5:_ZN14KWaylandServer39PlasmaVirtualDesktopManagementInterface13removeDesktopERK7QString
libKWaylandServer.so.5:_ZN14KWaylandServer39PlasmaVirtualDesktopManagementInterface16desktopActivatedERK7QString
libKWaylandServer.so.5:_ZN14KWaylandServer39PlasmaVirtualDesktopManagementInterface22desktopCreateRequestedERK7QStringj
libKWaylandServer.so.5:_ZN14KWaylandServer39PlasmaVirtualDesktopManagementInterface22desktopRemoveRequestedERK7QString
libKWaylandServer.so.5:_ZN14KWaylandServer39PlasmaVirtualDesktopManagementInterface7desktopERK7QString
libKWaylandServer.so.5:_ZN14KWaylandServer39PlasmaVirtualDesktopManagementInterface7setRowsEj
libKWaylandServer.so.5:_ZN14KWaylandServer39PlasmaVirtualDesktopManagementInterface8sendDoneEv
libKWaylandServer.so.5:_ZN14KWaylandServer39PlasmaVirtualDesktopManagementInterfaceC1EPNS_7DisplayEP7QObject
libKWaylandServer.so.5:_ZN14KWaylandServer39PlasmaVirtualDesktopManagementInterfaceC2EPNS_7DisplayEP7QObject
libKWaylandServer.so.5:_ZN14KWaylandServer39PlasmaVirtualDesktopManagementInterfaceD0Ev
libKWaylandServer.so.5:_ZN14KWaylandServer39PlasmaVirtualDesktopManagementInterfaceD1Ev
libKWaylandServer.so.5:_ZN14KWaylandServer39PlasmaVirtualDesktopManagementInterfaceD2Ev
libKWaylandServer.so.5:_ZN14KWaylandServer40PrimarySelectionDeviceManagerV1Interface11qt_metacallEN11QMetaObject4CallEiPPv
libKWaylandServer.so.5:_ZN14KWaylandServer40PrimarySelectionDeviceManagerV1Interface11qt_metacastEPKc
libKWaylandServer.so.5:_ZN14KWaylandServer40PrimarySelectionDeviceManagerV1Interface17dataDeviceCreatedEPNS_33PrimarySelectionDeviceV1InterfaceE
libKWaylandServer.so.5:_ZN14KWaylandServer40PrimarySelectionDeviceManagerV1Interface17dataSourceCreatedEPNS_33PrimarySelectionSourceV1InterfaceE
libKWaylandServer.so.5:_ZN14KWaylandServer40PrimarySelectionDeviceManagerV1InterfaceC1EPNS_7DisplayEP7QObject
libKWaylandServer.so.5:_ZN14KWaylandServer40PrimarySelectionDeviceManagerV1InterfaceC2EPNS_7DisplayEP7QObject
libKWaylandServer.so.5:_ZN14KWaylandServer40PrimarySelectionDeviceManagerV1InterfaceD0Ev
libKWaylandServer.so.5:_ZN14KWaylandServer40PrimarySelectionDeviceManagerV1InterfaceD1Ev
libKWaylandServer.so.5:_ZN14KWaylandServer40PrimarySelectionDeviceManagerV1InterfaceD2Ev
libKWaylandServer.so.5:_ZN14KWaylandServer42KeyboardShortcutsInhibitManagerV1Interface11qt_metacallEN11QMetaObject4CallEiPPv
libKWaylandServer.so.5:_ZN14KWaylandServer42KeyboardShortcutsInhibitManagerV1Interface11qt_metacastEPKc
libKWaylandServer.so.5:_ZN14KWaylandServer42KeyboardShortcutsInhibitManagerV1Interface15removeInhibitorEPNS_16SurfaceInterfaceEPNS_13SeatInterfaceE
libKWaylandServer.so.5:_ZN14KWaylandServer42KeyboardShortcutsInhibitManagerV1Interface16inhibitorCreatedEPNS_37KeyboardShortcutsInhibitorV1InterfaceE
libKWaylandServer.so.5:_ZN14KWaylandServer42KeyboardShortcutsInhibitManagerV1InterfaceC1EPNS_7DisplayEP7QObject
libKWaylandServer.so.5:_ZN14KWaylandServer42KeyboardShortcutsInhibitManagerV1InterfaceC2EPNS_7DisplayEP7QObject
libKWaylandServer.so.5:_ZN14KWaylandServer42KeyboardShortcutsInhibitManagerV1InterfaceD0Ev
libKWaylandServer.so.5:_ZN14KWaylandServer42KeyboardShortcutsInhibitManagerV1InterfaceD1Ev
libKWaylandServer.so.5:_ZN14KWaylandServer42KeyboardShortcutsInhibitManagerV1InterfaceD2Ev
libKWaylandServer.so.5:_ZN14KWaylandServer43ServerSideDecorationPaletteManagerInterface11qt_metacallEN11QMetaObject4CallEiPPv
libKWaylandServer.so.5:_ZN14KWaylandServer43ServerSideDecorationPaletteManagerInterface11qt_metacastEPKc
libKWaylandServer.so.5:_ZN14KWaylandServer43ServerSideDecorationPaletteManagerInterface14paletteCreatedEPNS_36ServerSideDecorationPaletteInterfaceE
libKWaylandServer.so.5:_ZN14KWaylandServer43ServerSideDecorationPaletteManagerInterface17paletteForSurfaceEPNS_16SurfaceInterfaceE
libKWaylandServer.so.5:_ZN14KWaylandServer43ServerSideDecorationPaletteManagerInterfaceC1EPNS_7DisplayEP7QObject
libKWaylandServer.so.5:_ZN14KWaylandServer43ServerSideDecorationPaletteManagerInterfaceC2EPNS_7DisplayEP7QObject
libKWaylandServer.so.5:_ZN14KWaylandServer43ServerSideDecorationPaletteManagerInterfaceD0Ev
libKWaylandServer.so.5:_ZN14KWaylandServer43ServerSideDecorationPaletteManagerInterfaceD1Ev
libKWaylandServer.so.5:_ZN14KWaylandServer43ServerSideDecorationPaletteManagerInterfaceD2Ev
libKWaylandServer.so.5:_ZN14KWaylandServer6Cursor11qt_metacallEN11QMetaObject4CallEiPPv
libKWaylandServer.so.5:_ZN14KWaylandServer6Cursor11qt_metacastEPKc
libKWaylandServer.so.5:_ZN14KWaylandServer6Cursor14hotspotChangedEv
libKWaylandServer.so.5:_ZN14KWaylandServer6Cursor14surfaceChangedEv
libKWaylandServer.so.5:_ZN14KWaylandServer6Cursor20enteredSerialChangedEv
libKWaylandServer.so.5:_ZN14KWaylandServer6Cursor7Private6updateERK8QPointerINS_16SurfaceInterfaceEEjRK6QPoint
libKWaylandServer.so.5:_ZN14KWaylandServer6Cursor7PrivateC1EPS0_PNS_16PointerInterfaceE
libKWaylandServer.so.5:_ZN14KWaylandServer6Cursor7PrivateC2EPS0_PNS_16PointerInterfaceE
libKWaylandServer.so.5:_ZN14KWaylandServer6Cursor7changedEv
libKWaylandServer.so.5:_ZN14KWaylandServer6CursorC1EPNS_16PointerInterfaceE
libKWaylandServer.so.5:_ZN14KWaylandServer6CursorC2EPNS_16PointerInterfaceE
libKWaylandServer.so.5:_ZN14KWaylandServer6CursorD0Ev
libKWaylandServer.so.5:_ZN14KWaylandServer6CursorD1Ev
libKWaylandServer.so.5:_ZN14KWaylandServer6CursorD2Ev
libKWaylandServer.so.5:_ZN14KWaylandServer6Global11qt_metacallEN11QMetaObject4CallEiPPv
libKWaylandServer.so.5:_ZN14KWaylandServer6Global11qt_metacastEPKc
libKWaylandServer.so.5:_ZN14KWaylandServer6Global20aboutToDestroyGlobalEv
libKWaylandServer.so.5:_ZN14KWaylandServer6Global6createEv
libKWaylandServer.so.5:_ZN14KWaylandServer6Global7Private4bindEP9wl_clientPvjj
libKWaylandServer.so.5:_ZN14KWaylandServer6Global7Private6createEv
libKWaylandServer.so.5:_ZN14KWaylandServer6Global7PrivateC1EPNS_7DisplayEPK12wl_interfacej
libKWaylandServer.so.5:_ZN14KWaylandServer6Global7PrivateC2EPNS_7DisplayEPK12wl_interfacej
libKWaylandServer.so.5:_ZN14KWaylandServer6Global7PrivateD0Ev
libKWaylandServer.so.5:_ZN14KWaylandServer6Global7PrivateD1Ev
libKWaylandServer.so.5:_ZN14KWaylandServer6Global7PrivateD2Ev
libKWaylandServer.so.5:_ZN14KWaylandServer6Global7destroyEv
libKWaylandServer.so.5:_ZN14KWaylandServer6Global7displayEv
libKWaylandServer.so.5:_ZN14KWaylandServer6GlobalC1EPNS0_7PrivateEP7QObject
libKWaylandServer.so.5:_ZN14KWaylandServer6GlobalC2EPNS0_7PrivateEP7QObject
libKWaylandServer.so.5:_ZN14KWaylandServer6GlobalD0Ev
libKWaylandServer.so.5:_ZN14KWaylandServer6GlobalD1Ev
libKWaylandServer.so.5:_ZN14KWaylandServer6GlobalD2Ev
libKWaylandServer.so.5:_ZN14KWaylandServer6GlobalcvP9wl_globalEv
libKWaylandServer.so.5:_ZN14KWaylandServer7Display10createIdleEP7QObject
libKWaylandServer.so.5:_ZN14KWaylandServer7Display10createSeatEP7QObject
libKWaylandServer.so.5:_ZN14KWaylandServer7Display10nextSerialEv
libKWaylandServer.so.5:_ZN14KWaylandServer7Display11qt_metacallEN11QMetaObject4CallEiPPv
libKWaylandServer.so.5:_ZN14KWaylandServer7Display11qt_metacastEPKc
libKWaylandServer.so.5:_ZN14KWaylandServer7Display12createClientEi
libKWaylandServer.so.5:_ZN14KWaylandServer7Display12createOutputEP7QObject
libKWaylandServer.so.5:_ZN14KWaylandServer7Display12removeOutputEPNS_15OutputInterfaceE
libKWaylandServer.so.5:_ZN14KWaylandServer7Display13getConnectionEP9wl_client
libKWaylandServer.so.5:_ZN14KWaylandServer7Display13setEglDisplayEPv
libKWaylandServer.so.5:_ZN14KWaylandServer7Display13setSocketNameERK7QString
libKWaylandServer.so.5:_ZN14KWaylandServer7Display14createXdgShellEP7QObject
libKWaylandServer.so.5:_ZN14KWaylandServer7Display14dispatchEventsEi
libKWaylandServer.so.5:_ZN14KWaylandServer7Display14runningChangedEb
libKWaylandServer.so.5:_ZN14KWaylandServer7Display15clientConnectedEPNS_16ClientConnectionE
libKWaylandServer.so.5:_ZN14KWaylandServer7Display15createFakeInputEP7QObject
libKWaylandServer.so.5:_ZN14KWaylandServer7Display16aboutToTerminateEv
libKWaylandServer.so.5:_ZN14KWaylandServer7Display16createCompositorEP7QObject
libKWaylandServer.so.5:_ZN14KWaylandServer7Display16createViewporterEP7QObject
libKWaylandServer.so.5:_ZN14KWaylandServer7Display17createBlurManagerEP7QObject
libKWaylandServer.so.5:_ZN14KWaylandServer7Display17createDpmsManagerEP7QObject
libKWaylandServer.so.5:_ZN14KWaylandServer7Display17createPlasmaShellEP7QObject
libKWaylandServer.so.5:_ZN14KWaylandServer7Display17socketNameChangedERK7QString
libKWaylandServer.so.5:_ZN14KWaylandServer7Display18clientDisconnectedEPNS_16ClientConnectionE
libKWaylandServer.so.5:_ZN14KWaylandServer7Display18createLayerShellV1EP7QObject
libKWaylandServer.so.5:_ZN14KWaylandServer7Display18createOutputDeviceEP7QObject
libKWaylandServer.so.5:_ZN14KWaylandServer7Display18createSlideManagerEP7QObject
libKWaylandServer.so.5:_ZN14KWaylandServer7Display18removeOutputDeviceEPNS_21OutputDeviceInterfaceE
libKWaylandServer.so.5:_ZN14KWaylandServer7Display19createShadowManagerEP7QObject
libKWaylandServer.so.5:_ZN14KWaylandServer7Display19createSubCompositorEP7QObject
libKWaylandServer.so.5:_ZN14KWaylandServer7Display21createContrastManagerEP7QObject
libKWaylandServer.so.5:_ZN14KWaylandServer7Display21createPointerGesturesERKNS_31PointerGesturesInterfaceVersionEP7QObject
libKWaylandServer.so.5:_ZN14KWaylandServer7Display22createOutputManagementEP7QObject
libKWaylandServer.so.5:_ZN14KWaylandServer7Display22createTextInputManagerERKNS_25TextInputInterfaceVersionEP7QObject
libKWaylandServer.so.5:_ZN14KWaylandServer7Display23createDataDeviceManagerEP7QObject
libKWaylandServer.so.5:_ZN14KWaylandServer7Display23createKeyStateInterfaceEP7QObject
libKWaylandServer.so.5:_ZN14KWaylandServer7Display24createPointerConstraintsERKNS_34PointerConstraintsInterfaceVersionEP7QObject
libKWaylandServer.so.5:_ZN14KWaylandServer7Display24createXdgOutputManagerV1EP7QObject
libKWaylandServer.so.5:_ZN14KWaylandServer7Display24setAutomaticSocketNamingEb
libKWaylandServer.so.5:_ZN14KWaylandServer7Display25createInputPanelInterfaceEP7QObject
libKWaylandServer.so.5:_ZN14KWaylandServer7Display26createIdleInhibitManagerV1EP7QObject
libKWaylandServer.so.5:_ZN14KWaylandServer7Display26createInputMethodInterfaceEP7QObject
libKWaylandServer.so.5:_ZN14KWaylandServer7Display26createLinuxDmabufInterfaceEP7QObject
libKWaylandServer.so.5:_ZN14KWaylandServer7Display27createScreencastV1InterfaceEP7QObject
libKWaylandServer.so.5:_ZN14KWaylandServer7Display27createXdgForeignV2InterfaceEP7QObject
libKWaylandServer.so.5:_ZN14KWaylandServer7Display28automaticSocketNamingChangedEb
libKWaylandServer.so.5:_ZN14KWaylandServer7Display28createPlasmaWindowManagementEP7QObject
libKWaylandServer.so.5:_ZN14KWaylandServer7Display28createRelativePointerManagerERKNS_31RelativePointerInterfaceVersionEP7QObject
libKWaylandServer.so.5:_ZN14KWaylandServer7Display28createTabletManagerInterfaceEP7QObject
libKWaylandServer.so.5:_ZN14KWaylandServer7Display28createXdgDecorationManagerV1EP7QObject
libKWaylandServer.so.5:_ZN14KWaylandServer7Display29createAppMenuManagerInterfaceEP7QObject
libKWaylandServer.so.5:_ZN14KWaylandServer7Display32createDataControlDeviceManagerV1EP7QObject
libKWaylandServer.so.5:_ZN14KWaylandServer7Display33createServerSideDecorationManagerEP7QObject
libKWaylandServer.so.5:_ZN14KWaylandServer7Display34createEglStreamControllerInterfaceEP7QObject
libKWaylandServer.so.5:_ZN14KWaylandServer7Display36createPlasmaVirtualDesktopManagementEP7QObject
libKWaylandServer.so.5:_ZN14KWaylandServer7Display37createPrimarySelectionDeviceManagerV1EP7QObject
libKWaylandServer.so.5:_ZN14KWaylandServer7Display39createKeyboardShortcutsInhibitManagerV1EP7QObject
libKWaylandServer.so.5:_ZN14KWaylandServer7Display40createServerSideDecorationPaletteManagerEP7QObject
libKWaylandServer.so.5:_ZN14KWaylandServer7Display5startENS0_9StartModeE
libKWaylandServer.so.5:_ZN14KWaylandServer7Display6serialEv
libKWaylandServer.so.5:_ZN14KWaylandServer7Display7Private10setRunningEb
libKWaylandServer.so.5:_ZN14KWaylandServer7Display7Private21installSocketNotifierEv
libKWaylandServer.so.5:_ZN14KWaylandServer7Display7Private5flushEv
libKWaylandServer.so.5:_ZN14KWaylandServer7Display7Private8dispatchEv
libKWaylandServer.so.5:_ZN14KWaylandServer7Display7PrivateC1EPS0_
libKWaylandServer.so.5:_ZN14KWaylandServer7Display7PrivateC2EPS0_
libKWaylandServer.so.5:_ZN14KWaylandServer7Display9createShmEv
libKWaylandServer.so.5:_ZN14KWaylandServer7DisplayC1EP7QObject
libKWaylandServer.so.5:_ZN14KWaylandServer7DisplayC2EP7QObject
libKWaylandServer.so.5:_ZN14KWaylandServer7DisplayD0Ev
libKWaylandServer.so.5:_ZN14KWaylandServer7DisplayD1Ev
libKWaylandServer.so.5:_ZN14KWaylandServer7DisplayD2Ev
libKWaylandServer.so.5:_ZN14KWaylandServer7DisplaycvP10wl_displayEv
libKWaylandServer.so.5:_ZN14KWaylandServer8Resource11qt_metacallEN11QMetaObject4CallEiPPv
libKWaylandServer.so.5:_ZN14KWaylandServer8Resource11qt_metacastEPKc
libKWaylandServer.so.5:_ZN14KWaylandServer8Resource16aboutToBeUnboundEv
libKWaylandServer.so.5:_ZN14KWaylandServer8Resource6clientEv
libKWaylandServer.so.5:_ZN14KWaylandServer8Resource6createEPNS_16ClientConnectionEjj
libKWaylandServer.so.5:_ZN14KWaylandServer8Resource6globalEv
libKWaylandServer.so.5:_ZN14KWaylandServer8Resource7Private25resourceDestroyedCallbackEP9wl_clientP11wl_resource
libKWaylandServer.so.5:_ZN14KWaylandServer8Resource7Private6createEPNS_16ClientConnectionEjj
libKWaylandServer.so.5:_ZN14KWaylandServer8Resource7Private6unbindEP11wl_resource
libKWaylandServer.so.5:_ZN14KWaylandServer8Resource7PrivateC1EPS0_PNS_6GlobalEP11wl_resourcePK12wl_interfacePKv
libKWaylandServer.so.5:_ZN14KWaylandServer8Resource7PrivateC2EPS0_PNS_6GlobalEP11wl_resourcePK12wl_interfacePKv
libKWaylandServer.so.5:_ZN14KWaylandServer8Resource7PrivateD0Ev
libKWaylandServer.so.5:_ZN14KWaylandServer8Resource7PrivateD1Ev
libKWaylandServer.so.5:_ZN14KWaylandServer8Resource7PrivateD2Ev
libKWaylandServer.so.5:_ZN14KWaylandServer8Resource7unboundEv
libKWaylandServer.so.5:_ZN14KWaylandServer8Resource8resourceEv
libKWaylandServer.so.5:_ZN14KWaylandServer8ResourceC1EPNS0_7PrivateEP7QObject
libKWaylandServer.so.5:_ZN14KWaylandServer8ResourceC2EPNS0_7PrivateEP7QObject
libKWaylandServer.so.5:_ZN14KWaylandServer8ResourceD0Ev
libKWaylandServer.so.5:_ZN14KWaylandServer8ResourceD1Ev
libKWaylandServer.so.5:_ZN14KWaylandServer8ResourceD2Ev
libKWaylandServer.so.5:_ZNK14KWaylandServer12TabletCursor10metaObjectEv
libKWaylandServer.so.5:_ZNK14KWaylandServer12TabletCursor13enteredSerialEv
libKWaylandServer.so.5:_ZNK14KWaylandServer12TabletCursor7hotspotEv
libKWaylandServer.so.5:_ZNK14KWaylandServer12TabletCursor7surfaceEv
libKWaylandServer.so.5:_ZNK14KWaylandServer13BlurInterface10metaObjectEv
libKWaylandServer.so.5:_ZNK14KWaylandServer13IdleInterface10metaObjectEv
libKWaylandServer.so.5:_ZNK14KWaylandServer13IdleInterface11isInhibitedEv
libKWaylandServer.so.5:_ZNK14KWaylandServer13SeatInterface10dragSourceEv
libKWaylandServer.so.5:_ZNK14KWaylandServer13SeatInterface10hasPointerEv
libKWaylandServer.so.5:_ZNK14KWaylandServer13SeatInterface10keymapSizeEv
libKWaylandServer.so.5:_ZNK14KWaylandServer13SeatInterface10metaObjectEv
libKWaylandServer.so.5:_ZNK14KWaylandServer13SeatInterface10pointerPosEv
libKWaylandServer.so.5:_ZNK14KWaylandServer13SeatInterface11dragPointerEv
libKWaylandServer.so.5:_ZNK14KWaylandServer13SeatInterface11dragSurfaceEv
libKWaylandServer.so.5:_ZNK14KWaylandServer13SeatInterface11hasKeyboardEv
libKWaylandServer.so.5:_ZNK14KWaylandServer13SeatInterface11isDragTouchEv
libKWaylandServer.so.5:_ZNK14KWaylandServer13SeatInterface11pressedKeysEv
libKWaylandServer.so.5:_ZNK14KWaylandServer13SeatInterface12focusedTouchEv
libKWaylandServer.so.5:_ZNK14KWaylandServer13SeatInterface13isDragPointerEv
libKWaylandServer.so.5:_ZNK14KWaylandServer13SeatInterface13keyRepeatRateEv
libKWaylandServer.so.5:_ZNK14KWaylandServer13SeatInterface14focusedPointerEv
libKWaylandServer.so.5:_ZNK14KWaylandServer13SeatInterface14groupModifiersEv
libKWaylandServer.so.5:_ZNK14KWaylandServer13SeatInterface14keyRepeatDelayEv
libKWaylandServer.so.5:_ZNK14KWaylandServer13SeatInterface15focusedKeyboardEv
libKWaylandServer.so.5:_ZNK14KWaylandServer13SeatInterface15isTouchSequenceEv
libKWaylandServer.so.5:_ZNK14KWaylandServer13SeatInterface15lockedModifiersEv
libKWaylandServer.so.5:_ZNK14KWaylandServer13SeatInterface16focusedTextInputEv
libKWaylandServer.so.5:_ZNK14KWaylandServer13SeatInterface16latchedModifiersEv
libKWaylandServer.so.5:_ZNK14KWaylandServer13SeatInterface18depressedModifiersEv
libKWaylandServer.so.5:_ZNK14KWaylandServer13SeatInterface19focusedTouchSurfaceEv
libKWaylandServer.so.5:_ZNK14KWaylandServer13SeatInterface19lastModifiersSerialEv
libKWaylandServer.so.5:_ZNK14KWaylandServer13SeatInterface19pointerButtonSerialEN2Qt11MouseButtonE
libKWaylandServer.so.5:_ZNK14KWaylandServer13SeatInterface19pointerButtonSerialEj
libKWaylandServer.so.5:_ZNK14KWaylandServer13SeatInterface20hasImplicitTouchGrabEj
libKWaylandServer.so.5:_ZNK14KWaylandServer13SeatInterface20keymapFileDescriptorEv
libKWaylandServer.so.5:_ZNK14KWaylandServer13SeatInterface21focusedPointerSurfaceEv
libKWaylandServer.so.5:_ZNK14KWaylandServer13SeatInterface21isKeymapXkbCompatibleEv
libKWaylandServer.so.5:_ZNK14KWaylandServer13SeatInterface22focusedKeyboardSurfaceEv
libKWaylandServer.so.5:_ZNK14KWaylandServer13SeatInterface22hasImplicitPointerGrabEj
libKWaylandServer.so.5:_ZNK14KWaylandServer13SeatInterface22isPointerButtonPressedEN2Qt11MouseButtonE
libKWaylandServer.so.5:_ZNK14KWaylandServer13SeatInterface22isPointerButtonPressedEj
libKWaylandServer.so.5:_ZNK14KWaylandServer13SeatInterface23focusedTextInputSurfaceEv
libKWaylandServer.so.5:_ZNK14KWaylandServer13SeatInterface25dragSurfaceTransformationEv
libKWaylandServer.so.5:_ZNK14KWaylandServer13SeatInterface27focusedTouchSurfacePositionEv
libKWaylandServer.so.5:_ZNK14KWaylandServer13SeatInterface29focusedPointerSurfacePositionEv
libKWaylandServer.so.5:_ZNK14KWaylandServer13SeatInterface35focusedPointerSurfaceTransformationEv
libKWaylandServer.so.5:_ZNK14KWaylandServer13SeatInterface4nameEv
libKWaylandServer.so.5:_ZNK14KWaylandServer13SeatInterface6d_funcEv
libKWaylandServer.so.5:_ZNK14KWaylandServer13SeatInterface6isDragEv
libKWaylandServer.so.5:_ZNK14KWaylandServer13SeatInterface7Private16touchsForSurfaceEPNS_16SurfaceInterfaceE
libKWaylandServer.so.5:_ZNK14KWaylandServer13SeatInterface7Private18pointersForSurfaceEPNS_16SurfaceInterfaceE
libKWaylandServer.so.5:_ZNK14KWaylandServer13SeatInterface7Private19keyboardsForSurfaceEPNS_16SurfaceInterfaceE
libKWaylandServer.so.5:_ZNK14KWaylandServer13SeatInterface7Private19textInputForSurfaceEPNS_16SurfaceInterfaceE
libKWaylandServer.so.5:_ZNK14KWaylandServer13SeatInterface7Private21dataDevicesForSurfaceEPNS_16SurfaceInterfaceE
libKWaylandServer.so.5:_ZNK14KWaylandServer13SeatInterface8hasTouchEv
libKWaylandServer.so.5:_ZNK14KWaylandServer13SeatInterface9selectionEv
libKWaylandServer.so.5:_ZNK14KWaylandServer13SeatInterface9timestampEv
libKWaylandServer.so.5:_ZNK14KWaylandServer13XdgPositioner10anchorRectEv
libKWaylandServer.so.5:_ZNK14KWaylandServer13XdgPositioner10isCompleteEv
libKWaylandServer.so.5:_ZNK14KWaylandServer13XdgPositioner11anchorEdgesEv
libKWaylandServer.so.5:_ZNK14KWaylandServer13XdgPositioner12gravityEdgesEv
libKWaylandServer.so.5:_ZNK14KWaylandServer13XdgPositioner25flipConstraintAdjustmentsEv
libKWaylandServer.so.5:_ZNK14KWaylandServer13XdgPositioner26slideConstraintAdjustmentsEv
libKWaylandServer.so.5:_ZNK14KWaylandServer13XdgPositioner27resizeConstraintAdjustmentsEv
libKWaylandServer.so.5:_ZNK14KWaylandServer13XdgPositioner4sizeEv
libKWaylandServer.so.5:_ZNK14KWaylandServer13XdgPositioner6offsetEv
libKWaylandServer.so.5:_ZNK14KWaylandServer14SlideInterface10metaObjectEv
libKWaylandServer.so.5:_ZNK14KWaylandServer14SlideInterface6d_funcEv
libKWaylandServer.so.5:_ZNK14KWaylandServer14SlideInterface6offsetEv
libKWaylandServer.so.5:_ZNK14KWaylandServer14SlideInterface8locationEv
libKWaylandServer.so.5:_ZNK14KWaylandServer14TouchInterface10metaObjectEv
libKWaylandServer.so.5:_ZNK14KWaylandServer14TouchInterface6d_funcEv
libKWaylandServer.so.5:_ZNK14KWaylandServer15BufferInterface10metaObjectEv
libKWaylandServer.so.5:_ZNK14KWaylandServer15BufferInterface12isReferencedEv
libKWaylandServer.so.5:_ZNK14KWaylandServer15BufferInterface15hasAlphaChannelEv
libKWaylandServer.so.5:_ZNK14KWaylandServer15BufferInterface4sizeEv
libKWaylandServer.so.5:_ZNK14KWaylandServer15BufferInterface5widthEv
libKWaylandServer.so.5:_ZNK14KWaylandServer15BufferInterface6heightEv
libKWaylandServer.so.5:_ZNK14KWaylandServer15BufferInterface7Private6formatEv
libKWaylandServer.so.5:_ZNK14KWaylandServer15BufferInterface8resourceEv
libKWaylandServer.so.5:_ZNK14KWaylandServer15FakeInputDevice10metaObjectEv
libKWaylandServer.so.5:_ZNK14KWaylandServer15FakeInputDevice15isAuthenticatedEv
libKWaylandServer.so.5:_ZNK14KWaylandServer15FilteredDisplay10metaObjectEv
libKWaylandServer.so.5:_ZNK14KWaylandServer15OutputChangeSet10metaObjectEv
libKWaylandServer.so.5:_ZNK14KWaylandServer15OutputChangeSet11colorCurvesEv
libKWaylandServer.so.5:_ZNK14KWaylandServer15OutputChangeSet11modeChangedEv
libKWaylandServer.so.5:_ZNK14KWaylandServer15OutputChangeSet12scaleChangedEv
libKWaylandServer.so.5:_ZNK14KWaylandServer15OutputChangeSet14enabledChangedEv
libKWaylandServer.so.5:_ZNK14KWaylandServer15OutputChangeSet15positionChangedEv
libKWaylandServer.so.5:_ZNK14KWaylandServer15OutputChangeSet16transformChangedEv
libKWaylandServer.so.5:_ZNK14KWaylandServer15OutputChangeSet18colorCurvesChangedEv
libKWaylandServer.so.5:_ZNK14KWaylandServer15OutputChangeSet4modeEv
libKWaylandServer.so.5:_ZNK14KWaylandServer15OutputChangeSet5scaleEv
libKWaylandServer.so.5:_ZNK14KWaylandServer15OutputChangeSet6d_funcEv
libKWaylandServer.so.5:_ZNK14KWaylandServer15OutputChangeSet6scaleFEv
libKWaylandServer.so.5:_ZNK14KWaylandServer15OutputChangeSet7enabledEv
libKWaylandServer.so.5:_ZNK14KWaylandServer15OutputChangeSet8positionEv
libKWaylandServer.so.5:_ZNK14KWaylandServer15OutputChangeSet9transformEv
libKWaylandServer.so.5:_ZNK14KWaylandServer15OutputInterface10metaObjectEv
libKWaylandServer.so.5:_ZNK14KWaylandServer15OutputInterface11refreshRateEv
libKWaylandServer.so.5:_ZNK14KWaylandServer15OutputInterface12manufacturerEv
libKWaylandServer.so.5:_ZNK14KWaylandServer15OutputInterface12physicalSizeEv
libKWaylandServer.so.5:_ZNK14KWaylandServer15OutputInterface14globalPositionEv
libKWaylandServer.so.5:_ZNK14KWaylandServer15OutputInterface15clientResourcesEPNS_16ClientConnectionE
libKWaylandServer.so.5:_ZNK14KWaylandServer15OutputInterface15isDpmsSupportedEv
libKWaylandServer.so.5:_ZNK14KWaylandServer15OutputInterface5modelEv
libKWaylandServer.so.5:_ZNK14KWaylandServer15OutputInterface5modesEv
libKWaylandServer.so.5:_ZNK14KWaylandServer15OutputInterface5scaleEv
libKWaylandServer.so.5:_ZNK14KWaylandServer15OutputInterface6d_funcEv
libKWaylandServer.so.5:_ZNK14KWaylandServer15OutputInterface7Private10toSubPixelEv
libKWaylandServer.so.5:_ZNK14KWaylandServer15OutputInterface7Private11toTransformEv
libKWaylandServer.so.5:_ZNK14KWaylandServer15OutputInterface8dpmsModeEv
libKWaylandServer.so.5:_ZNK14KWaylandServer15OutputInterface8subPixelEv
libKWaylandServer.so.5:_ZNK14KWaylandServer15OutputInterface9isEnabledEv
libKWaylandServer.so.5:_ZNK14KWaylandServer15OutputInterface9pixelSizeEv
libKWaylandServer.so.5:_ZNK14KWaylandServer15OutputInterface9transformEv
libKWaylandServer.so.5:_ZNK14KWaylandServer15RegionInterface10metaObjectEv
libKWaylandServer.so.5:_ZNK14KWaylandServer15RegionInterface6regionEv
libKWaylandServer.so.5:_ZNK14KWaylandServer15ShadowInterface10bottomLeftEv
libKWaylandServer.so.5:_ZNK14KWaylandServer15ShadowInterface10metaObjectEv
libKWaylandServer.so.5:_ZNK14KWaylandServer15ShadowInterface11bottomRightEv
libKWaylandServer.so.5:_ZNK14KWaylandServer15ShadowInterface3topEv
libKWaylandServer.so.5:_ZNK14KWaylandServer15ShadowInterface4leftEv
libKWaylandServer.so.5:_ZNK14KWaylandServer15ShadowInterface5rightEv
libKWaylandServer.so.5:_ZNK14KWaylandServer15ShadowInterface6bottomEv
libKWaylandServer.so.5:_ZNK14KWaylandServer15ShadowInterface6offsetEv
libKWaylandServer.so.5:_ZNK14KWaylandServer15ShadowInterface7topLeftEv
libKWaylandServer.so.5:_ZNK14KWaylandServer15ShadowInterface8topRightEv
libKWaylandServer.so.5:_ZNK14KWaylandServer15TabletInterface10metaObjectEv
libKWaylandServer.so.5:_ZNK14KWaylandServer15TabletInterface18isSurfaceSupportedEPNS_16SurfaceInterfaceE
libKWaylandServer.so.5:_ZNK14KWaylandServer16AppMenuInterface10metaObjectEv
libKWaylandServer.so.5:_ZNK14KWaylandServer16AppMenuInterface7addressEv
libKWaylandServer.so.5:_ZNK14KWaylandServer16AppMenuInterface7surfaceEv
libKWaylandServer.so.5:_ZNK14KWaylandServer16ClientConnection10metaObjectEv
libKWaylandServer.so.5:_ZNK14KWaylandServer16ClientConnection14executablePathEv
libKWaylandServer.so.5:_ZNK14KWaylandServer16ClientConnection6userIdEv
libKWaylandServer.so.5:_ZNK14KWaylandServer16ClientConnection7groupIdEv
libKWaylandServer.so.5:_ZNK14KWaylandServer16ClientConnection9processIdEv
libKWaylandServer.so.5:_ZNK14KWaylandServer16ClientConnectioncvP9wl_clientEv
libKWaylandServer.so.5:_ZNK14KWaylandServer16PointerInterface10metaObjectEv
libKWaylandServer.so.5:_ZNK14KWaylandServer16PointerInterface6cursorEv
libKWaylandServer.so.5:_ZNK14KWaylandServer16PointerInterface6d_funcEv
libKWaylandServer.so.5:_ZNK14KWaylandServer16SurfaceInterface10compositorEv
libKWaylandServer.so.5:_ZNK14KWaylandServer16SurfaceInterface10metaObjectEv
libKWaylandServer.so.5:_ZNK14KWaylandServer16SurfaceInterface10subSurfaceEv
libKWaylandServer.so.5:_ZNK14KWaylandServer16SurfaceInterface11bufferScaleEv
libKWaylandServer.so.5:_ZNK14KWaylandServer16SurfaceInterface11mapToBufferERK7QPointF
libKWaylandServer.so.5:_ZNK14KWaylandServer16SurfaceInterface11mapToBufferERK7QRegion
libKWaylandServer.so.5:_ZNK14KWaylandServer16SurfaceInterface12boundingRectEv
libKWaylandServer.so.5:_ZNK14KWaylandServer16SurfaceInterface12inhibitsIdleEv
libKWaylandServer.so.5:_ZNK14KWaylandServer16SurfaceInterface13lockedPointerEv
libKWaylandServer.so.5:_ZNK14KWaylandServer16SurfaceInterface13mapFromBufferERK7QPointF
libKWaylandServer.so.5:_ZNK14KWaylandServer16SurfaceInterface13mapFromBufferERK7QRegion
libKWaylandServer.so.5:_ZNK14KWaylandServer16SurfaceInterface13trackedDamageEv
libKWaylandServer.so.5:_ZNK14KWaylandServer16SurfaceInterface15bufferTransformEv
libKWaylandServer.so.5:_ZNK14KWaylandServer16SurfaceInterface15confinedPointerEv
libKWaylandServer.so.5:_ZNK14KWaylandServer16SurfaceInterface15inputIsInfiniteEv
libKWaylandServer.so.5:_ZNK14KWaylandServer16SurfaceInterface15slideOnShowHideEv
libKWaylandServer.so.5:_ZNK14KWaylandServer16SurfaceInterface16childSubSurfacesEv
libKWaylandServer.so.5:_ZNK14KWaylandServer16SurfaceInterface21surfaceToBufferMatrixEv
libKWaylandServer.so.5:_ZNK14KWaylandServer16SurfaceInterface2idEv
libKWaylandServer.so.5:_ZNK14KWaylandServer16SurfaceInterface4blurEv
libKWaylandServer.so.5:_ZNK14KWaylandServer16SurfaceInterface4sizeEv
libKWaylandServer.so.5:_ZNK14KWaylandServer16SurfaceInterface5inputEv
libKWaylandServer.so.5:_ZNK14KWaylandServer16SurfaceInterface6clientEv
libKWaylandServer.so.5:_ZNK14KWaylandServer16SurfaceInterface6damageEv
libKWaylandServer.so.5:_ZNK14KWaylandServer16SurfaceInterface6offsetEv
libKWaylandServer.so.5:_ZNK14KWaylandServer16SurfaceInterface6opaqueEv
libKWaylandServer.so.5:_ZNK14KWaylandServer16SurfaceInterface6shadowEv
libKWaylandServer.so.5:_ZNK14KWaylandServer16SurfaceInterface7outputsEv
libKWaylandServer.so.5:_ZNK14KWaylandServer16SurfaceInterface8contrastEv
libKWaylandServer.so.5:_ZNK14KWaylandServer16SurfaceInterface8isMappedEv
libKWaylandServer.so.5:_ZNK14KWaylandServer16SurfaceInterface8resourceEv
libKWaylandServer.so.5:_ZNK14KWaylandServer16SurfaceInterface9dataProxyEv
libKWaylandServer.so.5:_ZNK14KWaylandServer17ContrastInterface10metaObjectEv
libKWaylandServer.so.5:_ZNK14KWaylandServer17ContrastInterface10saturationEv
libKWaylandServer.so.5:_ZNK14KWaylandServer17ContrastInterface6regionEv
libKWaylandServer.so.5:_ZNK14KWaylandServer17ContrastInterface8contrastEv
libKWaylandServer.so.5:_ZNK14KWaylandServer17ContrastInterface9intensityEv
libKWaylandServer.so.5:_ZNK14KWaylandServer17KeyStateInterface10metaObjectEv
libKWaylandServer.so.5:_ZNK14KWaylandServer17KeyboardInterface10metaObjectEv
libKWaylandServer.so.5:_ZNK14KWaylandServer17KeyboardInterface14focusedSurfaceEv
libKWaylandServer.so.5:_ZNK14KWaylandServer17KeyboardInterface6d_funcEv
libKWaylandServer.so.5:_ZNK14KWaylandServer17LinuxDmabufBuffer4sizeEv
libKWaylandServer.so.5:_ZNK14KWaylandServer17LinuxDmabufBuffer6formatEv
libKWaylandServer.so.5:_ZNK14KWaylandServer17XdgPopupInterface10metaObjectEv
libKWaylandServer.so.5:_ZNK14KWaylandServer17XdgPopupInterface10positionerEv
libKWaylandServer.so.5:_ZNK14KWaylandServer17XdgPopupInterface10xdgSurfaceEv
libKWaylandServer.so.5:_ZNK14KWaylandServer17XdgPopupInterface12isConfiguredEv
libKWaylandServer.so.5:_ZNK14KWaylandServer17XdgPopupInterface13parentSurfaceEv
libKWaylandServer.so.5:_ZNK14KWaylandServer17XdgPopupInterface7surfaceEv
libKWaylandServer.so.5:_ZNK14KWaylandServer17XdgShellInterface10metaObjectEv
libKWaylandServer.so.5:_ZNK14KWaylandServer17XdgShellInterface7displayEv
libKWaylandServer.so.5:_ZNK14KWaylandServer18AbstractDataSource10metaObjectEv
libKWaylandServer.so.5:_ZNK14KWaylandServer18DataOfferInterface10metaObjectEv
libKWaylandServer.so.5:_ZNK14KWaylandServer18DataOfferInterface26preferredDragAndDropActionEv
libKWaylandServer.so.5:_ZNK14KWaylandServer18DataOfferInterface27supportedDragAndDropActionsEv
libKWaylandServer.so.5:_ZNK14KWaylandServer18DataOfferInterface6d_funcEv
libKWaylandServer.so.5:_ZNK14KWaylandServer18FakeInputInterface10metaObjectEv
libKWaylandServer.so.5:_ZNK14KWaylandServer18TextInputInterface10metaObjectEv
libKWaylandServer.so.5:_ZNK14KWaylandServer18TextInputInterface12contentHintsEv
libKWaylandServer.so.5:_ZNK14KWaylandServer18TextInputInterface14contentPurposeEv
libKWaylandServer.so.5:_ZNK14KWaylandServer18TextInputInterface15cursorRectangleEv
libKWaylandServer.so.5:_ZNK14KWaylandServer18TextInputInterface15surroundingTextEv
libKWaylandServer.so.5:_ZNK14KWaylandServer18TextInputInterface16interfaceVersionEv
libKWaylandServer.so.5:_ZNK14KWaylandServer18TextInputInterface17preferredLanguageEv
libKWaylandServer.so.5:_ZNK14KWaylandServer18TextInputInterface29surroundingTextCursorPositionEv
libKWaylandServer.so.5:_ZNK14KWaylandServer18TextInputInterface30surroundingTextSelectionAnchorEv
libKWaylandServer.so.5:_ZNK14KWaylandServer18TextInputInterface6d_funcEv
libKWaylandServer.so.5:_ZNK14KWaylandServer18TextInputInterface7surfaceEv
libKWaylandServer.so.5:_ZNK14KWaylandServer18TextInputInterface9isEnabledEv
libKWaylandServer.so.5:_ZNK14KWaylandServer19CompositorInterface10metaObjectEv
libKWaylandServer.so.5:_ZNK14KWaylandServer19CompositorInterface7displayEv
libKWaylandServer.so.5:_ZNK14KWaylandServer19DataDeviceInterface10dragSourceEv
libKWaylandServer.so.5:_ZNK14KWaylandServer19DataDeviceInterface10metaObjectEv
libKWaylandServer.so.5:_ZNK14KWaylandServer19DataDeviceInterface22dragImplicitGrabSerialEv
libKWaylandServer.so.5:_ZNK14KWaylandServer19DataDeviceInterface4iconEv
libKWaylandServer.so.5:_ZNK14KWaylandServer19DataDeviceInterface4seatEv
libKWaylandServer.so.5:_ZNK14KWaylandServer19DataDeviceInterface6d_funcEv
libKWaylandServer.so.5:_ZNK14KWaylandServer19DataDeviceInterface6originEv
libKWaylandServer.so.5:_ZNK14KWaylandServer19DataDeviceInterface9selectionEv
libKWaylandServer.so.5:_ZNK14KWaylandServer19DataSourceInterface10metaObjectEv
libKWaylandServer.so.5:_ZNK14KWaylandServer19DataSourceInterface27supportedDragAndDropActionsEv
libKWaylandServer.so.5:_ZNK14KWaylandServer19DataSourceInterface6d_funcEv
libKWaylandServer.so.5:_ZNK14KWaylandServer19DataSourceInterface9mimeTypesEv
libKWaylandServer.so.5:_ZNK14KWaylandServer19SubSurfaceInterface10metaObjectEv
libKWaylandServer.so.5:_ZNK14KWaylandServer19SubSurfaceInterface11mainSurfaceEv
libKWaylandServer.so.5:_ZNK14KWaylandServer19SubSurfaceInterface13parentSurfaceEv
libKWaylandServer.so.5:_ZNK14KWaylandServer19SubSurfaceInterface14isSynchronizedEv
libKWaylandServer.so.5:_ZNK14KWaylandServer19SubSurfaceInterface4modeEv
libKWaylandServer.so.5:_ZNK14KWaylandServer19SubSurfaceInterface6d_funcEv
libKWaylandServer.so.5:_ZNK14KWaylandServer19SubSurfaceInterface7surfaceEv
libKWaylandServer.so.5:_ZNK14KWaylandServer19SubSurfaceInterface8positionEv
libKWaylandServer.so.5:_ZNK14KWaylandServer19TabletSeatInterface10metaObjectEv
libKWaylandServer.so.5:_ZNK14KWaylandServer19TabletSeatInterface12tabletByNameERK7QString
libKWaylandServer.so.5:_ZNK14KWaylandServer19TabletSeatInterface16toolByHardwareIdEy
libKWaylandServer.so.5:_ZNK14KWaylandServer19TabletSeatInterface20toolByHardwareSerialEy
libKWaylandServer.so.5:_ZNK14KWaylandServer19TabletToolInterface10metaObjectEv
libKWaylandServer.so.5:_ZNK14KWaylandServer19TabletToolInterface13cursorChangedEPNS_12TabletCursorE
libKWaylandServer.so.5:_ZNK14KWaylandServer19TabletToolInterface17isClientSupportedEv
libKWaylandServer.so.5:_ZNK14KWaylandServer19ViewporterInterface10metaObjectEv
libKWaylandServer.so.5:_ZNK14KWaylandServer19XdgSurfaceInterface10metaObjectEv
libKWaylandServer.so.5:_ZNK14KWaylandServer19XdgSurfaceInterface12isConfiguredEv
libKWaylandServer.so.5:_ZNK14KWaylandServer19XdgSurfaceInterface14windowGeometryEv
libKWaylandServer.so.5:_ZNK14KWaylandServer19XdgSurfaceInterface5popupEv
libKWaylandServer.so.5:_ZNK14KWaylandServer19XdgSurfaceInterface5shellEv
libKWaylandServer.so.5:_ZNK14KWaylandServer19XdgSurfaceInterface7surfaceEv
libKWaylandServer.so.5:_ZNK14KWaylandServer19XdgSurfaceInterface8toplevelEv
libKWaylandServer.so.5:_ZNK14KWaylandServer20BlurManagerInterface10metaObjectEv
libKWaylandServer.so.5:_ZNK14KWaylandServer20DpmsManagerInterface10metaObjectEv
libKWaylandServer.so.5:_ZNK14KWaylandServer20PlasmaShellInterface10metaObjectEv
libKWaylandServer.so.5:_ZNK14KWaylandServer20XdgOutputV1Interface10metaObjectEv
libKWaylandServer.so.5:_ZNK14KWaylandServer20XdgOutputV1Interface11logicalSizeEv
libKWaylandServer.so.5:_ZNK14KWaylandServer20XdgOutputV1Interface15logicalPositionEv
libKWaylandServer.so.5:_ZNK14KWaylandServer20XdgToplevelInterface10metaObjectEv
libKWaylandServer.so.5:_ZNK14KWaylandServer20XdgToplevelInterface10xdgSurfaceEv
libKWaylandServer.so.5:_ZNK14KWaylandServer20XdgToplevelInterface11maximumSizeEv
libKWaylandServer.so.5:_ZNK14KWaylandServer20XdgToplevelInterface11minimumSizeEv
libKWaylandServer.so.5:_ZNK14KWaylandServer20XdgToplevelInterface11windowClassEv
libKWaylandServer.so.5:_ZNK14KWaylandServer20XdgToplevelInterface11windowTitleEv
libKWaylandServer.so.5:_ZNK14KWaylandServer20XdgToplevelInterface12isConfiguredEv
libKWaylandServer.so.5:_ZNK14KWaylandServer20XdgToplevelInterface17parentXdgToplevelEv
libKWaylandServer.so.5:_ZNK14KWaylandServer20XdgToplevelInterface5shellEv
libKWaylandServer.so.5:_ZNK14KWaylandServer20XdgToplevelInterface7surfaceEv
libKWaylandServer.so.5:_ZNK14KWaylandServer21InputPanelV1Interface10metaObjectEv
libKWaylandServer.so.5:_ZNK14KWaylandServer21LayerShellV1Interface10metaObjectEv
libKWaylandServer.so.5:_ZNK14KWaylandServer21LayerShellV1Interface7displayEv
libKWaylandServer.so.5:_ZNK14KWaylandServer21OutputDeviceInterface10metaObjectEv
libKWaylandServer.so.5:_ZNK14KWaylandServer21OutputDeviceInterface11ColorCurveseqERKS1_
libKWaylandServer.so.5:_ZNK14KWaylandServer21OutputDeviceInterface11ColorCurvesneERKS1_
libKWaylandServer.so.5:_ZNK14KWaylandServer21OutputDeviceInterface11colorCurvesEv
libKWaylandServer.so.5:_ZNK14KWaylandServer21OutputDeviceInterface11refreshRateEv
libKWaylandServer.so.5:_ZNK14KWaylandServer21OutputDeviceInterface12manufacturerEv
libKWaylandServer.so.5:_ZNK14KWaylandServer21OutputDeviceInterface12physicalSizeEv
libKWaylandServer.so.5:_ZNK14KWaylandServer21OutputDeviceInterface12serialNumberEv
libKWaylandServer.so.5:_ZNK14KWaylandServer21OutputDeviceInterface13currentModeIdEv
libKWaylandServer.so.5:_ZNK14KWaylandServer21OutputDeviceInterface14globalPositionEv
libKWaylandServer.so.5:_ZNK14KWaylandServer21OutputDeviceInterface4edidEv
libKWaylandServer.so.5:_ZNK14KWaylandServer21OutputDeviceInterface4uuidEv
libKWaylandServer.so.5:_ZNK14KWaylandServer21OutputDeviceInterface5modelEv
libKWaylandServer.so.5:_ZNK14KWaylandServer21OutputDeviceInterface5modesEv
libKWaylandServer.so.5:_ZNK14KWaylandServer21OutputDeviceInterface5scaleEv
libKWaylandServer.so.5:_ZNK14KWaylandServer21OutputDeviceInterface6d_funcEv
libKWaylandServer.so.5:_ZNK14KWaylandServer21OutputDeviceInterface6eisaIdEv
libKWaylandServer.so.5:_ZNK14KWaylandServer21OutputDeviceInterface6scaleFEv
libKWaylandServer.so.5:_ZNK14KWaylandServer21OutputDeviceInterface7Private10toSubPixelEv
libKWaylandServer.so.5:_ZNK14KWaylandServer21OutputDeviceInterface7Private11toTransformEv
libKWaylandServer.so.5:_ZNK14KWaylandServer21OutputDeviceInterface7enabledEv
libKWaylandServer.so.5:_ZNK14KWaylandServer21OutputDeviceInterface8subPixelEv
libKWaylandServer.so.5:_ZNK14KWaylandServer21OutputDeviceInterface9pixelSizeEv
libKWaylandServer.so.5:_ZNK14KWaylandServer21OutputDeviceInterface9transformEv
libKWaylandServer.so.5:_ZNK14KWaylandServer21PlasmaWindowInterface10internalIdEv
libKWaylandServer.so.5:_ZNK14KWaylandServer21PlasmaWindowInterface10metaObjectEv
libKWaylandServer.so.5:_ZNK14KWaylandServer21PlasmaWindowInterface19minimizedGeometriesEv
libKWaylandServer.so.5:_ZNK14KWaylandServer21PlasmaWindowInterface21plasmaVirtualDesktopsEv
libKWaylandServer.so.5:_ZNK14KWaylandServer21PlasmaWindowInterface7Private17resourceForParentEPS0_P11wl_resource
libKWaylandServer.so.5:_ZNK14KWaylandServer21ScreencastV1Interface10metaObjectEv
libKWaylandServer.so.5:_ZNK14KWaylandServer21SlideManagerInterface10metaObjectEv
libKWaylandServer.so.5:_ZNK14KWaylandServer21XdgForeignV2Interface10metaObjectEv
libKWaylandServer.so.5:_ZNK14KWaylandServer22InputMethodV1Interface10metaObjectEv
libKWaylandServer.so.5:_ZNK14KWaylandServer22InputMethodV1Interface7contextEv
libKWaylandServer.so.5:_ZNK14KWaylandServer22LockedPointerInterface10metaObjectEv
libKWaylandServer.so.5:_ZNK14KWaylandServer22LockedPointerInterface16interfaceVersionEv
libKWaylandServer.so.5:_ZNK14KWaylandServer22LockedPointerInterface18cursorPositionHintEv
libKWaylandServer.so.5:_ZNK14KWaylandServer22LockedPointerInterface6d_funcEv
libKWaylandServer.so.5:_ZNK14KWaylandServer22LockedPointerInterface6regionEv
libKWaylandServer.so.5:_ZNK14KWaylandServer22LockedPointerInterface8isLockedEv
libKWaylandServer.so.5:_ZNK14KWaylandServer22LockedPointerInterface8lifeTimeEv
libKWaylandServer.so.5:_ZNK14KWaylandServer22ShadowManagerInterface10metaObjectEv
libKWaylandServer.so.5:_ZNK14KWaylandServer22ShadowManagerInterface7displayEv
libKWaylandServer.so.5:_ZNK14KWaylandServer22SubCompositorInterface10metaObjectEv
libKWaylandServer.so.5:_ZNK14KWaylandServer22TabletManagerInterface10metaObjectEv
libKWaylandServer.so.5:_ZNK14KWaylandServer22TabletManagerInterface4seatEPNS_13SeatInterfaceE
libKWaylandServer.so.5:_ZNK14KWaylandServer23AppMenuManagerInterface10metaObjectEv
libKWaylandServer.so.5:_ZNK14KWaylandServer23LayerSurfaceV1Interface10leftMarginEv
libKWaylandServer.so.5:_ZNK14KWaylandServer23LayerSurfaceV1Interface10metaObjectEv
libKWaylandServer.so.5:_ZNK14KWaylandServer23LayerSurfaceV1Interface11desiredSizeEv
libKWaylandServer.so.5:_ZNK14KWaylandServer23LayerSurfaceV1Interface11isCommittedEv
libKWaylandServer.so.5:_ZNK14KWaylandServer23LayerSurfaceV1Interface11rightMarginEv
libKWaylandServer.so.5:_ZNK14KWaylandServer23LayerSurfaceV1Interface12acceptsFocusEv
libKWaylandServer.so.5:_ZNK14KWaylandServer23LayerSurfaceV1Interface12bottomMarginEv
libKWaylandServer.so.5:_ZNK14KWaylandServer23LayerSurfaceV1Interface13exclusiveEdgeEv
libKWaylandServer.so.5:_ZNK14KWaylandServer23LayerSurfaceV1Interface13exclusiveZoneEv
libKWaylandServer.so.5:_ZNK14KWaylandServer23LayerSurfaceV1Interface5layerEv
libKWaylandServer.so.5:_ZNK14KWaylandServer23LayerSurfaceV1Interface5scopeEv
libKWaylandServer.so.5:_ZNK14KWaylandServer23LayerSurfaceV1Interface6anchorEv
libKWaylandServer.so.5:_ZNK14KWaylandServer23LayerSurfaceV1Interface6outputEv
libKWaylandServer.so.5:_ZNK14KWaylandServer23LayerSurfaceV1Interface7marginsEv
libKWaylandServer.so.5:_ZNK14KWaylandServer23LayerSurfaceV1Interface7surfaceEv
libKWaylandServer.so.5:_ZNK14KWaylandServer23LayerSurfaceV1Interface9topMarginEv
libKWaylandServer.so.5:_ZNK14KWaylandServer24ConfinedPointerInterface10isConfinedEv
libKWaylandServer.so.5:_ZNK14KWaylandServer24ConfinedPointerInterface10metaObjectEv
libKWaylandServer.so.5:_ZNK14KWaylandServer24ConfinedPointerInterface16interfaceVersionEv
libKWaylandServer.so.5:_ZNK14KWaylandServer24ConfinedPointerInterface6d_funcEv
libKWaylandServer.so.5:_ZNK14KWaylandServer24ConfinedPointerInterface6regionEv
libKWaylandServer.so.5:_ZNK14KWaylandServer24ConfinedPointerInterface8lifeTimeEv
libKWaylandServer.so.5:_ZNK14KWaylandServer24ContrastManagerInterface10metaObjectEv
libKWaylandServer.so.5:_ZNK14KWaylandServer24PointerGesturesInterface10metaObjectEv
libKWaylandServer.so.5:_ZNK14KWaylandServer24PointerGesturesInterface16interfaceVersionEv
libKWaylandServer.so.5:_ZNK14KWaylandServer24PointerGesturesInterface6d_funcEv
libKWaylandServer.so.5:_ZNK14KWaylandServer25OutputManagementInterface10metaObjectEv
libKWaylandServer.so.5:_ZNK14KWaylandServer25TextInputManagerInterface10metaObjectEv
libKWaylandServer.so.5:_ZNK14KWaylandServer25TextInputManagerInterface16interfaceVersionEv
libKWaylandServer.so.5:_ZNK14KWaylandServer25TextInputManagerInterface6d_funcEv
libKWaylandServer.so.5:_ZNK14KWaylandServer26DataDeviceManagerInterface10metaObjectEv
libKWaylandServer.so.5:_ZNK14KWaylandServer27DataControlOfferV1Interface10metaObjectEv
libKWaylandServer.so.5:_ZNK14KWaylandServer27DataControlOfferV1Interface8resourceEv
libKWaylandServer.so.5:_ZNK14KWaylandServer27PlasmaShellSurfaceInterface10metaObjectEv
libKWaylandServer.so.5:_ZNK14KWaylandServer27PlasmaShellSurfaceInterface11skipTaskbarEv
libKWaylandServer.so.5:_ZNK14KWaylandServer27PlasmaShellSurfaceInterface12skipSwitcherEv
libKWaylandServer.so.5:_ZNK14KWaylandServer27PlasmaShellSurfaceInterface13isPositionSetEv
libKWaylandServer.so.5:_ZNK14KWaylandServer27PlasmaShellSurfaceInterface13panelBehaviorEv
libKWaylandServer.so.5:_ZNK14KWaylandServer27PlasmaShellSurfaceInterface15panelTakesFocusEv
libKWaylandServer.so.5:_ZNK14KWaylandServer27PlasmaShellSurfaceInterface4roleEv
libKWaylandServer.so.5:_ZNK14KWaylandServer27PlasmaShellSurfaceInterface5shellEv
libKWaylandServer.so.5:_ZNK14KWaylandServer27PlasmaShellSurfaceInterface6d_funcEv
libKWaylandServer.so.5:_ZNK14KWaylandServer27PlasmaShellSurfaceInterface7surfaceEv
libKWaylandServer.so.5:_ZNK14KWaylandServer27PlasmaShellSurfaceInterface8positionEv
libKWaylandServer.so.5:_ZNK14KWaylandServer27PointerConstraintsInterface10metaObjectEv
libKWaylandServer.so.5:_ZNK14KWaylandServer27PointerConstraintsInterface16interfaceVersionEv
libKWaylandServer.so.5:_ZNK14KWaylandServer27PointerConstraintsInterface6d_funcEv
libKWaylandServer.so.5:_ZNK14KWaylandServer27ScreencastStreamV1Interface10metaObjectEv
libKWaylandServer.so.5:_ZNK14KWaylandServer27XdgOutputManagerV1Interface10metaObjectEv
libKWaylandServer.so.5:_ZNK14KWaylandServer28DataControlDeviceV1Interface10metaObjectEv
libKWaylandServer.so.5:_ZNK14KWaylandServer28DataControlDeviceV1Interface4seatEv
libKWaylandServer.so.5:_ZNK14KWaylandServer28DataControlDeviceV1Interface9selectionEv
libKWaylandServer.so.5:_ZNK14KWaylandServer28DataControlSourceV1Interface10metaObjectEv
libKWaylandServer.so.5:_ZNK14KWaylandServer28DataControlSourceV1Interface9mimeTypesEv
libKWaylandServer.so.5:_ZNK14KWaylandServer28EglStreamControllerInterface10metaObjectEv
libKWaylandServer.so.5:_ZNK14KWaylandServer28InputPanelSurfaceV1Interface10metaObjectEv
libKWaylandServer.so.5:_ZNK14KWaylandServer28InputPanelSurfaceV1Interface2idEv
libKWaylandServer.so.5:_ZNK14KWaylandServer28InputPanelSurfaceV1Interface7surfaceEv
libKWaylandServer.so.5:_ZNK14KWaylandServer28OutputConfigurationInterface10metaObjectEv
libKWaylandServer.so.5:_ZNK14KWaylandServer28OutputConfigurationInterface6d_funcEv
libKWaylandServer.so.5:_ZNK14KWaylandServer28OutputConfigurationInterface7Private17hasPendingChangesEPNS_21OutputDeviceInterfaceE
libKWaylandServer.so.5:_ZNK14KWaylandServer28OutputConfigurationInterface7Private32emitConfigurationChangeRequestedEv
libKWaylandServer.so.5:_ZNK14KWaylandServer28OutputConfigurationInterface7changesEv
libKWaylandServer.so.5:_ZNK14KWaylandServer29IdleInhibitManagerV1Interface10metaObjectEv
libKWaylandServer.so.5:_ZNK14KWaylandServer29InputMethodContextV1Interface10metaObjectEv
libKWaylandServer.so.5:_ZNK14KWaylandServer29PlasmaVirtualDesktopInterface10metaObjectEv
libKWaylandServer.so.5:_ZNK14KWaylandServer29PlasmaVirtualDesktopInterface2idEv
libKWaylandServer.so.5:_ZNK14KWaylandServer29PlasmaVirtualDesktopInterface4nameEv
libKWaylandServer.so.5:_ZNK14KWaylandServer29PlasmaVirtualDesktopInterface8isActiveEv
libKWaylandServer.so.5:_ZNK14KWaylandServer29ServerSideDecorationInterface10metaObjectEv
libKWaylandServer.so.5:_ZNK14KWaylandServer29ServerSideDecorationInterface4modeEv
libKWaylandServer.so.5:_ZNK14KWaylandServer29ServerSideDecorationInterface7surfaceEv
libKWaylandServer.so.5:_ZNK14KWaylandServer30LinuxDmabufUnstableV1Interface10metaObjectEv
libKWaylandServer.so.5:_ZNK14KWaylandServer30LinuxDmabufUnstableV1Interface6d_funcEv
libKWaylandServer.so.5:_ZNK14KWaylandServer31PlasmaWindowManagementInterface10metaObjectEv
libKWaylandServer.so.5:_ZNK14KWaylandServer31PlasmaWindowManagementInterface39plasmaVirtualDesktopManagementInterfaceEv
libKWaylandServer.so.5:_ZNK14KWaylandServer31PlasmaWindowManagementInterface6d_funcEv
libKWaylandServer.so.5:_ZNK14KWaylandServer31PlasmaWindowManagementInterface7windowsEv
libKWaylandServer.so.5:_ZNK14KWaylandServer31RelativePointerManagerInterface10metaObjectEv
libKWaylandServer.so.5:_ZNK14KWaylandServer31RelativePointerManagerInterface16interfaceVersionEv
libKWaylandServer.so.5:_ZNK14KWaylandServer31RelativePointerManagerInterface6d_funcEv
libKWaylandServer.so.5:_ZNK14KWaylandServer31XdgDecorationManagerV1Interface10metaObjectEv
libKWaylandServer.so.5:_ZNK14KWaylandServer32PrimarySelectionOfferV1Interface10metaObjectEv
libKWaylandServer.so.5:_ZNK14KWaylandServer32PrimarySelectionOfferV1Interface8resourceEv
libKWaylandServer.so.5:_ZNK14KWaylandServer32XdgToplevelDecorationV1Interface10metaObjectEv
libKWaylandServer.so.5:_ZNK14KWaylandServer32XdgToplevelDecorationV1Interface13preferredModeEv
libKWaylandServer.so.5:_ZNK14KWaylandServer32XdgToplevelDecorationV1Interface8toplevelEv
libKWaylandServer.so.5:_ZNK14KWaylandServer33PrimarySelectionDeviceV1Interface10metaObjectEv
libKWaylandServer.so.5:_ZNK14KWaylandServer33PrimarySelectionDeviceV1Interface4seatEv
libKWaylandServer.so.5:_ZNK14KWaylandServer33PrimarySelectionDeviceV1Interface6clientEv
libKWaylandServer.so.5:_ZNK14KWaylandServer33PrimarySelectionDeviceV1Interface9selectionEv
libKWaylandServer.so.5:_ZNK14KWaylandServer33PrimarySelectionSourceV1Interface10metaObjectEv
libKWaylandServer.so.5:_ZNK14KWaylandServer33PrimarySelectionSourceV1Interface9mimeTypesEv
libKWaylandServer.so.5:_ZNK14KWaylandServer35DataControlDeviceManagerV1Interface10metaObjectEv
libKWaylandServer.so.5:_ZNK14KWaylandServer36ServerSideDecorationManagerInterface10metaObjectEv
libKWaylandServer.so.5:_ZNK14KWaylandServer36ServerSideDecorationManagerInterface11defaultModeEv
libKWaylandServer.so.5:_ZNK14KWaylandServer36ServerSideDecorationPaletteInterface10metaObjectEv
libKWaylandServer.so.5:_ZNK14KWaylandServer36ServerSideDecorationPaletteInterface7paletteEv
libKWaylandServer.so.5:_ZNK14KWaylandServer36ServerSideDecorationPaletteInterface7surfaceEv
libKWaylandServer.so.5:_ZNK14KWaylandServer37KeyboardShortcutsInhibitorV1Interface10metaObjectEv
libKWaylandServer.so.5:_ZNK14KWaylandServer37KeyboardShortcutsInhibitorV1Interface4seatEv
libKWaylandServer.so.5:_ZNK14KWaylandServer37KeyboardShortcutsInhibitorV1Interface7surfaceEv
libKWaylandServer.so.5:_ZNK14KWaylandServer37KeyboardShortcutsInhibitorV1Interface8isActiveEv
libKWaylandServer.so.5:_ZNK14KWaylandServer39PlasmaVirtualDesktopManagementInterface10metaObjectEv
libKWaylandServer.so.5:_ZNK14KWaylandServer39PlasmaVirtualDesktopManagementInterface8desktopsEv
libKWaylandServer.so.5:_ZNK14KWaylandServer40PrimarySelectionDeviceManagerV1Interface10metaObjectEv
libKWaylandServer.so.5:_ZNK14KWaylandServer42KeyboardShortcutsInhibitManagerV1Interface10metaObjectEv
libKWaylandServer.so.5:_ZNK14KWaylandServer42KeyboardShortcutsInhibitManagerV1Interface13findInhibitorEPNS_16SurfaceInterfaceEPNS_13SeatInterfaceE
libKWaylandServer.so.5:_ZNK14KWaylandServer43ServerSideDecorationPaletteManagerInterface10metaObjectEv
libKWaylandServer.so.5:_ZNK14KWaylandServer6Cursor10metaObjectEv
libKWaylandServer.so.5:_ZNK14KWaylandServer6Cursor13enteredSerialEv
libKWaylandServer.so.5:_ZNK14KWaylandServer6Cursor7hotspotEv
libKWaylandServer.so.5:_ZNK14KWaylandServer6Cursor7pointerEv
libKWaylandServer.so.5:_ZNK14KWaylandServer6Cursor7surfaceEv
libKWaylandServer.so.5:_ZNK14KWaylandServer6Global10metaObjectEv
libKWaylandServer.so.5:_ZNK14KWaylandServer6Global7isValidEv
libKWaylandServer.so.5:_ZNK14KWaylandServer6GlobalcvP9wl_globalEv
libKWaylandServer.so.5:_ZNK14KWaylandServer7Display10eglDisplayEv
libKWaylandServer.so.5:_ZNK14KWaylandServer7Display10metaObjectEv
libKWaylandServer.so.5:_ZNK14KWaylandServer7Display10socketNameEv
libKWaylandServer.so.5:_ZNK14KWaylandServer7Display11connectionsEv
libKWaylandServer.so.5:_ZNK14KWaylandServer7Display13outputDevicesEv
libKWaylandServer.so.5:_ZNK14KWaylandServer7Display21automaticSocketNamingEv
libKWaylandServer.so.5:_ZNK14KWaylandServer7Display5seatsEv
libKWaylandServer.so.5:_ZNK14KWaylandServer7Display7outputsEv
libKWaylandServer.so.5:_ZNK14KWaylandServer7Display9isRunningEv
libKWaylandServer.so.5:_ZNK14KWaylandServer7DisplaycvP10wl_displayEv
libKWaylandServer.so.5:_ZNK14KWaylandServer8Resource10metaObjectEv
libKWaylandServer.so.5:_ZNK14KWaylandServer8Resource14parentResourceEv
libKWaylandServer.so.5:_ZNK14KWaylandServer8Resource2idEv
